
/home/beast13/181/lab6/DE1_SoC_CAMERA/StartPoll.axf:     file format elf32-littlearm


Disassembly of section .text:

00000000 <__cs3_interrupt_vector>:
       0:	18 f0 9f e5 18 f0 9f e5 18 f0 9f e5 18 f0 9f e5     ................
      10:	18 f0 9f e5 18 f0 9f e5 18 f0 9f e5 18 f0 9f e5     ................
      20:	40 00 00 00 e8 3b 00 00 ec 3b 00 00 f0 3b 00 00     @....;...;...;..
      30:	f4 3b 00 00 e4 3b 00 00 f8 3b 00 00 fc 3b 00 00     .;...;...;...;..

00000040 <__cs3_reset>:
      40:	ea000024 	b	d8 <__cs3_start_asm_sim>

00000044 <__cs3_start_c>:
      44:	e59f8084 	ldr	r8, [pc, #132]	; d0 <__cs3_start_c+0x8c>
      48:	e3580000 	cmp	r8, #0
      4c:	e92d4080 	push	{r7, lr}
      50:	e2488001 	sub	r8, r8, #1
      54:	0a00001c 	beq	cc <__cs3_start_c+0x88>
      58:	e59f7074 	ldr	r7, [pc, #116]	; d4 <__cs3_start_c+0x90>
      5c:	e3a00000 	mov	r0, #0
      60:	e3a01000 	mov	r1, #0
      64:	e2475010 	sub	r5, r7, #16
      68:	e8951020 	ldm	r5, {r5, r12}
      6c:	e5176008 	ldr	r6, [r7, #-8]
      70:	e155000c 	cmp	r5, r12
      74:	008cc006 	addeq	r12, r12, r6
      78:	0a000007 	beq	9c <__cs3_start_c+0x58>
      7c:	e3560000 	cmp	r6, #0
      80:	0a000005 	beq	9c <__cs3_start_c+0x58>
      84:	e1a0e005 	mov	lr, r5
      88:	e8be000c 	ldm	lr!, {r2, r3}
      8c:	e065400e 	rsb	r4, r5, lr
      90:	e1560004 	cmp	r6, r4
      94:	e8ac000c 	stmia	r12!, {r2, r3}
      98:	1afffffa 	bne	88 <__cs3_start_c+0x44>
      9c:	e517e004 	ldr	lr, [r7, #-4]
      a0:	e35e0000 	cmp	lr, #0
      a4:	11a0300c 	movne	r3, r12
      a8:	0a000003 	beq	bc <__cs3_start_c+0x78>
      ac:	e8a30003 	stmia	r3!, {r0, r1}
      b0:	e06c2003 	rsb	r2, r12, r3
      b4:	e15e0002 	cmp	lr, r2
      b8:	1afffffb 	bne	ac <__cs3_start_c+0x68>
      bc:	e2488001 	sub	r8, r8, #1
      c0:	e3780001 	cmn	r8, #1
      c4:	e2877014 	add	r7, r7, #20
      c8:	1affffe5 	bne	64 <__cs3_start_c+0x20>
      cc:	eb000d13 	bl	3520 <__cs3_premain>
      d0:	00000001 	.word	0x00000001
      d4:	00003d1c 	.word	0x00003d1c

000000d8 <__cs3_start_asm_sim>:
      d8:	e28f103c 	add	r1, pc, #60	; 0x3c
      dc:	e3a00016 	mov	r0, #22
      e0:	ef123456 	svc	0x00123456
      e4:	e3500000 	cmp	r0, #0
      e8:	ba000008 	blt	110 <__cs3_region_zero_size_ram+0x10>
      ec:	e59f2028 	ldr	r2, [pc, #40]	; 11c <__cs3_heap_start_ptr>
      f0:	e59fd01c 	ldr	sp, [pc, #28]	; 114 <__cs3_region_zero_size_ram+0x14>
      f4:	e5920008 	ldr	r0, [r2, #8]
      f8:	e3500000 	cmp	r0, #0
      fc:	11a0d000 	movne	sp, r0
     100:	e59f1010 	ldr	r1, [pc, #16]	; 118 <__cs3_region_zero_size_ram+0x18>
     104:	e5920004 	ldr	r0, [r2, #4]
     108:	e3500000 	cmp	r0, #0
     10c:	15810000 	strne	r0, [r1]
     110:	eaffffcb 	b	44 <__cs3_start_c>
     114:	3ffffffc 	.word	0x3ffffffc
     118:	00004568 	.word	0x00004568

0000011c <__cs3_heap_start_ptr>:
     11c:	00004670 	.word	0x00004670

00000120 <_start>:
     120:	e51fd000 	ldr	sp, [pc, #-0]	; 128 <_start+0x8>
     124:	eaffffc6 	b	44 <__cs3_start_c>
     128:	3ffffffc 	.word	0x3ffffffc

0000012c <deregister_tm_clones>:
     12c:	e92d4008 	push	{r3, lr}
     130:	e59f002c 	ldr	r0, [pc, #44]	; 164 <deregister_tm_clones+0x38>
     134:	e59f302c 	ldr	r3, [pc, #44]	; 168 <deregister_tm_clones+0x3c>
     138:	e0603003 	rsb	r3, r0, r3
     13c:	e3530006 	cmp	r3, #6
     140:	8a000001 	bhi	14c <deregister_tm_clones+0x20>
     144:	e8bd4008 	pop	{r3, lr}
     148:	e12fff1e 	bx	lr
     14c:	e59f3018 	ldr	r3, [pc, #24]	; 16c <deregister_tm_clones+0x40>
     150:	e3530000 	cmp	r3, #0
     154:	0afffffa 	beq	144 <deregister_tm_clones+0x18>
     158:	e1a0e00f 	mov	lr, pc
     15c:	e12fff13 	bx	r3
     160:	eafffff7 	b	144 <deregister_tm_clones+0x18>
     164:	00004570 	.word	0x00004570
     168:	00004573 	.word	0x00004573
     16c:	00000000 	.word	0x00000000

00000170 <register_tm_clones>:
     170:	e92d4008 	push	{r3, lr}
     174:	e59f0034 	ldr	r0, [pc, #52]	; 1b0 <register_tm_clones+0x40>
     178:	e59f3034 	ldr	r3, [pc, #52]	; 1b4 <register_tm_clones+0x44>
     17c:	e0603003 	rsb	r3, r0, r3
     180:	e1a03143 	asr	r3, r3, #2
     184:	e0833fa3 	add	r3, r3, r3, lsr #31
     188:	e1b010c3 	asrs	r1, r3, #1
     18c:	1a000001 	bne	198 <register_tm_clones+0x28>
     190:	e8bd4008 	pop	{r3, lr}
     194:	e12fff1e 	bx	lr
     198:	e59f2018 	ldr	r2, [pc, #24]	; 1b8 <register_tm_clones+0x48>
     19c:	e3520000 	cmp	r2, #0
     1a0:	0afffffa 	beq	190 <register_tm_clones+0x20>
     1a4:	e1a0e00f 	mov	lr, pc
     1a8:	e12fff12 	bx	r2
     1ac:	eafffff7 	b	190 <register_tm_clones+0x20>
     1b0:	00004570 	.word	0x00004570
     1b4:	00004570 	.word	0x00004570
     1b8:	00000000 	.word	0x00000000

000001bc <__do_global_dtors_aux>:
     1bc:	e92d4010 	push	{r4, lr}
     1c0:	e59f402c 	ldr	r4, [pc, #44]	; 1f4 <__do_global_dtors_aux+0x38>
     1c4:	e5d43000 	ldrb	r3, [r4]
     1c8:	e3530000 	cmp	r3, #0
     1cc:	1a000006 	bne	1ec <__do_global_dtors_aux+0x30>
     1d0:	ebffffd5 	bl	12c <deregister_tm_clones>
     1d4:	e59f301c 	ldr	r3, [pc, #28]	; 1f8 <__do_global_dtors_aux+0x3c>
     1d8:	e3530000 	cmp	r3, #0
     1dc:	159f0018 	ldrne	r0, [pc, #24]	; 1fc <__do_global_dtors_aux+0x40>
     1e0:	1320f000 	nopne	{0}
     1e4:	e3a03001 	mov	r3, #1
     1e8:	e5c43000 	strb	r3, [r4]
     1ec:	e8bd4010 	pop	{r4, lr}
     1f0:	e12fff1e 	bx	lr
     1f4:	00004570 	.word	0x00004570
     1f8:	00000000 	.word	0x00000000
     1fc:	00003c98 	.word	0x00003c98

00000200 <frame_dummy>:
     200:	e92d4008 	push	{r3, lr}
     204:	e59f3034 	ldr	r3, [pc, #52]	; 240 <frame_dummy+0x40>
     208:	e3530000 	cmp	r3, #0
     20c:	159f0030 	ldrne	r0, [pc, #48]	; 244 <frame_dummy+0x44>
     210:	159f1030 	ldrne	r1, [pc, #48]	; 248 <frame_dummy+0x48>
     214:	1320f000 	nopne	{0}
     218:	e59f002c 	ldr	r0, [pc, #44]	; 24c <frame_dummy+0x4c>
     21c:	e5903000 	ldr	r3, [r0]
     220:	e3530000 	cmp	r3, #0
     224:	0a000003 	beq	238 <frame_dummy+0x38>
     228:	e59f3020 	ldr	r3, [pc, #32]	; 250 <frame_dummy+0x50>
     22c:	e3530000 	cmp	r3, #0
     230:	11a0e00f 	movne	lr, pc
     234:	112fff13 	bxne	r3
     238:	e8bd4008 	pop	{r3, lr}
     23c:	eaffffcb 	b	170 <register_tm_clones>
     240:	00000000 	.word	0x00000000
     244:	00003c98 	.word	0x00003c98
     248:	00004574 	.word	0x00004574
     24c:	00003d20 	.word	0x00003d20
     250:	00000000 	.word	0x00000000

00000254 <main>:
int main(void) 
{ 
     254:	e92d4800 	push	{r11, lr}
     258:	e28db004 	add	r11, sp, #4
     25c:	e24dd008 	sub	sp, sp, #8
 
volatile int *start  
     260:	e3a03000 	mov	r3, #0
     264:	e34f3f20 	movt	r3, #65312	; 0xff20
     268:	e50b300c 	str	r3, [r11, #-12]
 
= (int *) 0xFF200000;  // red LED address 
 
int c; 
 *start = 0;
     26c:	e51b300c 	ldr	r3, [r11, #-12]
     270:	e3a02000 	mov	r2, #0
     274:	e5832000 	str	r2, [r3]
 
while ( c != '1') 
     278:	ea000006 	b	298 <main+0x44>
 
{ 
  printf("Press 1 to Start Camera:\n");
     27c:	e3030c9c 	movw	r0, #15516	; 0x3c9c
     280:	e3400000 	movt	r0, #0
     284:	eb000063 	bl	418 <puts>
  c =getchar();
     288:	eb000026 	bl	328 <getchar>
     28c:	e50b0008 	str	r0, [r11, #-8]
  printf("\n");
     290:	e3a0000a 	mov	r0, #10
     294:	eb000030 	bl	35c <putchar>
= (int *) 0xFF200000;  // red LED address 
 
int c; 
 *start = 0;
 
while ( c != '1') 
     298:	e51b3008 	ldr	r3, [r11, #-8]
     29c:	e3530031 	cmp	r3, #49	; 0x31
     2a0:	1afffff5 	bne	27c <main+0x28>
{ 
  printf("Press 1 to Start Camera:\n");
  c =getchar();
  printf("\n");
} 
*start = 1;
     2a4:	e51b300c 	ldr	r3, [r11, #-12]
     2a8:	e3a02001 	mov	r2, #1
     2ac:	e5832000 	str	r2, [r3]
return 1;
     2b0:	e3a03001 	mov	r3, #1
} 
     2b4:	e1a00003 	mov	r0, r3
     2b8:	e24bd004 	sub	sp, r11, #4
     2bc:	e8bd8800 	pop	{r11, pc}

000002c0 <atexit>:
     2c0:	e92d4008 	push	{r3, lr}
     2c4:	e1a01000 	mov	r1, r0
     2c8:	e3a00000 	mov	r0, #0
     2cc:	e1a03000 	mov	r3, r0
     2d0:	e1a02000 	mov	r2, r0
     2d4:	eb00006c 	bl	48c <__register_exitproc>
     2d8:	e8bd4008 	pop	{r3, lr}
     2dc:	e12fff1e 	bx	lr

000002e0 <exit>:
     2e0:	e92d4008 	push	{r3, lr}
     2e4:	e3a01000 	mov	r1, #0
     2e8:	e1a04000 	mov	r4, r0
     2ec:	eb0000a2 	bl	57c <__call_exitprocs>
     2f0:	e59f3018 	ldr	r3, [pc, #24]	; 310 <exit+0x30>
     2f4:	e5930000 	ldr	r0, [r3]
     2f8:	e590303c 	ldr	r3, [r0, #60]	; 0x3c
     2fc:	e3530000 	cmp	r3, #0
     300:	11a0e00f 	movne	lr, pc
     304:	112fff13 	bxne	r3
     308:	e1a00004 	mov	r0, r4
     30c:	eb000cb4 	bl	35e4 <_exit>
     310:	00003cb8 	.word	0x00003cb8

00000314 <_getchar_r>:
     314:	e92d4008 	push	{r3, lr}
     318:	e5901004 	ldr	r1, [r0, #4]
     31c:	eb000241 	bl	c28 <_getc_r>
     320:	e8bd4008 	pop	{r3, lr}
     324:	e12fff1e 	bx	lr

00000328 <getchar>:
     328:	e92d4008 	push	{r3, lr}
     32c:	e59f3010 	ldr	r3, [pc, #16]	; 344 <getchar+0x1c>
     330:	e5930000 	ldr	r0, [r3]
     334:	e5901004 	ldr	r1, [r0, #4]
     338:	eb00023a 	bl	c28 <_getc_r>
     33c:	e8bd4008 	pop	{r3, lr}
     340:	e12fff1e 	bx	lr
     344:	00003d28 	.word	0x00003d28

00000348 <_putchar_r>:
     348:	e92d4008 	push	{r3, lr}
     34c:	e5902008 	ldr	r2, [r0, #8]
     350:	eb000503 	bl	1764 <_putc_r>
     354:	e8bd4008 	pop	{r3, lr}
     358:	e12fff1e 	bx	lr

0000035c <putchar>:
     35c:	e92d4008 	push	{r3, lr}
     360:	e59f3018 	ldr	r3, [pc, #24]	; 380 <putchar+0x24>
     364:	e5933000 	ldr	r3, [r3]
     368:	e1a01000 	mov	r1, r0
     36c:	e5932008 	ldr	r2, [r3, #8]
     370:	e1a00003 	mov	r0, r3
     374:	eb0004fa 	bl	1764 <_putc_r>
     378:	e8bd4008 	pop	{r3, lr}
     37c:	e12fff1e 	bx	lr
     380:	00003d28 	.word	0x00003d28

00000384 <_puts_r>:
     384:	e92d40f0 	push	{r4, r5, r6, r7, lr}
     388:	e1a04000 	mov	r4, r0
     38c:	e24dd024 	sub	sp, sp, #36	; 0x24
     390:	e1a00001 	mov	r0, r1
     394:	e1a05001 	mov	r5, r1
     398:	eb000023 	bl	42c <strlen>
     39c:	e5943008 	ldr	r3, [r4, #8]
     3a0:	e1d320bc 	ldrh	r2, [r3, #12]
     3a4:	e3a01002 	mov	r1, #2
     3a8:	e3120a02 	tst	r2, #8192	; 0x2000
     3ac:	e58d1008 	str	r1, [sp, #8]
     3b0:	05931064 	ldreq	r1, [r3, #100]	; 0x64
     3b4:	03822a02 	orreq	r2, r2, #8192	; 0x2000
     3b8:	03c11a02 	biceq	r1, r1, #8192	; 0x2000
     3bc:	e3a0e001 	mov	lr, #1
     3c0:	e59f604c 	ldr	r6, [pc, #76]	; 414 <_puts_r+0x90>
     3c4:	05831064 	streq	r1, [r3, #100]	; 0x64
     3c8:	e2807001 	add	r7, r0, #1
     3cc:	e28dc010 	add	r12, sp, #16
     3d0:	e58d0014 	str	r0, [sp, #20]
     3d4:	e58de01c 	str	lr, [sp, #28]
     3d8:	e1a00004 	mov	r0, r4
     3dc:	01c320bc 	strheq	r2, [r3, #12]
     3e0:	e1a01003 	mov	r1, r3
     3e4:	e28d2004 	add	r2, sp, #4
     3e8:	e58d5010 	str	r5, [sp, #16]
     3ec:	e58d700c 	str	r7, [sp, #12]
     3f0:	e58d6018 	str	r6, [sp, #24]
     3f4:	e58dc004 	str	r12, [sp, #4]
     3f8:	eb0000d6 	bl	758 <__sfvwrite_r>
     3fc:	e3500000 	cmp	r0, #0
     400:	03a0000a 	moveq	r0, #10
     404:	13e00000 	mvnne	r0, #0
     408:	e28dd024 	add	sp, sp, #36	; 0x24
     40c:	e8bd40f0 	pop	{r4, r5, r6, r7, lr}
     410:	e12fff1e 	bx	lr
     414:	00003cc0 	.word	0x00003cc0

00000418 <puts>:
     418:	e59f3008 	ldr	r3, [pc, #8]	; 428 <puts+0x10>
     41c:	e1a01000 	mov	r1, r0
     420:	e5930000 	ldr	r0, [r3]
     424:	eaffffd6 	b	384 <_puts_r>
     428:	00003d28 	.word	0x00003d28

0000042c <strlen>:
     42c:	e3c01003 	bic	r1, r0, #3
     430:	e2100003 	ands	r0, r0, #3
     434:	e2600000 	rsb	r0, r0, #0
     438:	e4913004 	ldr	r3, [r1], #4
     43c:	e280c004 	add	r12, r0, #4
     440:	e1a0c18c 	lsl	r12, r12, #3
     444:	e3e02000 	mvn	r2, #0
     448:	11833c32 	orrne	r3, r3, r2, lsr r12
     44c:	e3a0c001 	mov	r12, #1
     450:	e18cc40c 	orr	r12, r12, r12, lsl #8
     454:	e18cc80c 	orr	r12, r12, r12, lsl #16
     458:	e043200c 	sub	r2, r3, r12
     45c:	e1c22003 	bic	r2, r2, r3
     460:	e012238c 	ands	r2, r2, r12, lsl #7
     464:	04913004 	ldreq	r3, [r1], #4
     468:	02800004 	addeq	r0, r0, #4
     46c:	0afffff9 	beq	458 <strlen+0x2c>
     470:	e31300ff 	tst	r3, #255	; 0xff
     474:	12800001 	addne	r0, r0, #1
     478:	13130cff 	tstne	r3, #65280	; 0xff00
     47c:	12800001 	addne	r0, r0, #1
     480:	131308ff 	tstne	r3, #16711680	; 0xff0000
     484:	12800001 	addne	r0, r0, #1
     488:	e12fff1e 	bx	lr

0000048c <__register_exitproc>:
     48c:	e59fc0e0 	ldr	r12, [pc, #224]	; 574 <__register_exitproc+0xe8>
     490:	e92d4070 	push	{r4, r5, r6, lr}
     494:	e59c5000 	ldr	r5, [r12]
     498:	e595c148 	ldr	r12, [r5, #328]	; 0x148
     49c:	e35c0000 	cmp	r12, #0
     4a0:	0285cf53 	addeq	r12, r5, #332	; 0x14c
     4a4:	e59c4004 	ldr	r4, [r12, #4]
     4a8:	0585c148 	streq	r12, [r5, #328]	; 0x148
     4ac:	e354001f 	cmp	r4, #31
     4b0:	e24dd010 	sub	sp, sp, #16
     4b4:	e1a06000 	mov	r6, r0
     4b8:	da000016 	ble	518 <__register_exitproc+0x8c>
     4bc:	e59f00b4 	ldr	r0, [pc, #180]	; 578 <__register_exitproc+0xec>
     4c0:	e3500000 	cmp	r0, #0
     4c4:	1a000003 	bne	4d8 <__register_exitproc+0x4c>
     4c8:	e3e00000 	mvn	r0, #0
     4cc:	e28dd010 	add	sp, sp, #16
     4d0:	e8bd4070 	pop	{r4, r5, r6, lr}
     4d4:	e12fff1e 	bx	lr
     4d8:	e3a00e19 	mov	r0, #400	; 0x190
     4dc:	e58d100c 	str	r1, [sp, #12]
     4e0:	e58d2008 	str	r2, [sp, #8]
     4e4:	e58d3004 	str	r3, [sp, #4]
     4e8:	e320f000 	nop	{0}
     4ec:	e250c000 	subs	r12, r0, #0
     4f0:	e59d100c 	ldr	r1, [sp, #12]
     4f4:	e59d2008 	ldr	r2, [sp, #8]
     4f8:	e59d3004 	ldr	r3, [sp, #4]
     4fc:	0afffff1 	beq	4c8 <__register_exitproc+0x3c>
     500:	e5950148 	ldr	r0, [r5, #328]	; 0x148
     504:	e3a04000 	mov	r4, #0
     508:	e88c0011 	stm	r12, {r0, r4}
     50c:	e585c148 	str	r12, [r5, #328]	; 0x148
     510:	e58c4188 	str	r4, [r12, #392]	; 0x188
     514:	e58c418c 	str	r4, [r12, #396]	; 0x18c
     518:	e3560000 	cmp	r6, #0
     51c:	1a000007 	bne	540 <__register_exitproc+0xb4>
     520:	e2843001 	add	r3, r4, #1
     524:	e3a00000 	mov	r0, #0
     528:	e2844002 	add	r4, r4, #2
     52c:	e58c3004 	str	r3, [r12, #4]
     530:	e78c1104 	str	r1, [r12, r4, lsl #2]
     534:	e28dd010 	add	sp, sp, #16
     538:	e8bd4070 	pop	{r4, r5, r6, lr}
     53c:	e12fff1e 	bx	lr
     540:	e3a05001 	mov	r5, #1
     544:	e1a05415 	lsl	r5, r5, r4
     548:	e08c0104 	add	r0, r12, r4, lsl #2
     54c:	e5802088 	str	r2, [r0, #136]	; 0x88
     550:	e59c2188 	ldr	r2, [r12, #392]	; 0x188
     554:	e1822005 	orr	r2, r2, r5
     558:	e58c2188 	str	r2, [r12, #392]	; 0x188
     55c:	e5803108 	str	r3, [r0, #264]	; 0x108
     560:	e3560002 	cmp	r6, #2
     564:	059c318c 	ldreq	r3, [r12, #396]	; 0x18c
     568:	01835005 	orreq	r5, r3, r5
     56c:	058c518c 	streq	r5, [r12, #396]	; 0x18c
     570:	eaffffea 	b	520 <__register_exitproc+0x94>
     574:	00003cb8 	.word	0x00003cb8
     578:	00000000 	.word	0x00000000

0000057c <__call_exitprocs>:
     57c:	e92d4ff0 	push	{r4, r5, r6, r7, r8, r9, r10, r11, lr}
     580:	e59f315c 	ldr	r3, [pc, #348]	; 6e4 <__call_exitprocs+0x168>
     584:	e5933000 	ldr	r3, [r3]
     588:	e24dd014 	sub	sp, sp, #20
     58c:	e2832f52 	add	r2, r3, #328	; 0x148
     590:	e58d3004 	str	r3, [sp, #4]
     594:	e58d0008 	str	r0, [sp, #8]
     598:	e58d200c 	str	r2, [sp, #12]
     59c:	e1a07001 	mov	r7, r1
     5a0:	e3a09001 	mov	r9, #1
     5a4:	e59d3004 	ldr	r3, [sp, #4]
     5a8:	e5938148 	ldr	r8, [r3, #328]	; 0x148
     5ac:	e3580000 	cmp	r8, #0
     5b0:	0a000038 	beq	698 <__call_exitprocs+0x11c>
     5b4:	e59db00c 	ldr	r11, [sp, #12]
     5b8:	e5986004 	ldr	r6, [r8, #4]
     5bc:	e2564001 	subs	r4, r6, #1
     5c0:	50885106 	addpl	r5, r8, r6, lsl #2
     5c4:	52866002 	addpl	r6, r6, #2
     5c8:	52855f42 	addpl	r5, r5, #264	; 0x108
     5cc:	50886106 	addpl	r6, r8, r6, lsl #2
     5d0:	5a000008 	bpl	5f8 <__call_exitprocs+0x7c>
     5d4:	ea00002c 	b	68c <__call_exitprocs+0x110>
     5d8:	e5153004 	ldr	r3, [r5, #-4]
     5dc:	e1530007 	cmp	r3, r7
     5e0:	0a000006 	beq	600 <__call_exitprocs+0x84>
     5e4:	e2444001 	sub	r4, r4, #1
     5e8:	e3740001 	cmn	r4, #1
     5ec:	e2455004 	sub	r5, r5, #4
     5f0:	e2466004 	sub	r6, r6, #4
     5f4:	0a000024 	beq	68c <__call_exitprocs+0x110>
     5f8:	e3570000 	cmp	r7, #0
     5fc:	1afffff5 	bne	5d8 <__call_exitprocs+0x5c>
     600:	e5983004 	ldr	r3, [r8, #4]
     604:	e2433001 	sub	r3, r3, #1
     608:	e1530004 	cmp	r3, r4
     60c:	e5163004 	ldr	r3, [r6, #-4]
     610:	13a02000 	movne	r2, #0
     614:	05884004 	streq	r4, [r8, #4]
     618:	15062004 	strne	r2, [r6, #-4]
     61c:	e3530000 	cmp	r3, #0
     620:	0affffef 	beq	5e4 <__call_exitprocs+0x68>
     624:	e1a02419 	lsl	r2, r9, r4
     628:	e5981188 	ldr	r1, [r8, #392]	; 0x188
     62c:	e1120001 	tst	r2, r1
     630:	e598a004 	ldr	r10, [r8, #4]
     634:	0a00000d 	beq	670 <__call_exitprocs+0xf4>
     638:	e598118c 	ldr	r1, [r8, #396]	; 0x18c
     63c:	e1120001 	tst	r2, r1
     640:	1a00000d 	bne	67c <__call_exitprocs+0x100>
     644:	e59d0008 	ldr	r0, [sp, #8]
     648:	e5151084 	ldr	r1, [r5, #-132]	; 0xffffff7c
     64c:	e1a0e00f 	mov	lr, pc
     650:	e12fff13 	bx	r3
     654:	e5983004 	ldr	r3, [r8, #4]
     658:	e153000a 	cmp	r3, r10
     65c:	1affffd0 	bne	5a4 <__call_exitprocs+0x28>
     660:	e59b3000 	ldr	r3, [r11]
     664:	e1530008 	cmp	r3, r8
     668:	0affffdd 	beq	5e4 <__call_exitprocs+0x68>
     66c:	eaffffcc 	b	5a4 <__call_exitprocs+0x28>
     670:	e1a0e00f 	mov	lr, pc
     674:	e12fff13 	bx	r3
     678:	eafffff5 	b	654 <__call_exitprocs+0xd8>
     67c:	e5150084 	ldr	r0, [r5, #-132]	; 0xffffff7c
     680:	e1a0e00f 	mov	lr, pc
     684:	e12fff13 	bx	r3
     688:	eafffff1 	b	654 <__call_exitprocs+0xd8>
     68c:	e59f2054 	ldr	r2, [pc, #84]	; 6e8 <__call_exitprocs+0x16c>
     690:	e3520000 	cmp	r2, #0
     694:	1a000002 	bne	6a4 <__call_exitprocs+0x128>
     698:	e28dd014 	add	sp, sp, #20
     69c:	e8bd4ff0 	pop	{r4, r5, r6, r7, r8, r9, r10, r11, lr}
     6a0:	e12fff1e 	bx	lr
     6a4:	e5983004 	ldr	r3, [r8, #4]
     6a8:	e3530000 	cmp	r3, #0
     6ac:	e5983000 	ldr	r3, [r8]
     6b0:	1a000008 	bne	6d8 <__call_exitprocs+0x15c>
     6b4:	e3530000 	cmp	r3, #0
     6b8:	0a000006 	beq	6d8 <__call_exitprocs+0x15c>
     6bc:	e1a00008 	mov	r0, r8
     6c0:	e58b3000 	str	r3, [r11]
     6c4:	e320f000 	nop	{0}
     6c8:	e59b8000 	ldr	r8, [r11]
     6cc:	e3580000 	cmp	r8, #0
     6d0:	1affffb8 	bne	5b8 <__call_exitprocs+0x3c>
     6d4:	eaffffef 	b	698 <__call_exitprocs+0x11c>
     6d8:	e1a0b008 	mov	r11, r8
     6dc:	e1a08003 	mov	r8, r3
     6e0:	eafffff9 	b	6cc <__call_exitprocs+0x150>
     6e4:	00003cb8 	.word	0x00003cb8
     6e8:	00000000 	.word	0x00000000

000006ec <register_fini>:
     6ec:	e92d4008 	push	{r3, lr}
     6f0:	e59f3010 	ldr	r3, [pc, #16]	; 708 <register_fini+0x1c>
     6f4:	e3530000 	cmp	r3, #0
     6f8:	159f000c 	ldrne	r0, [pc, #12]	; 70c <register_fini+0x20>
     6fc:	1bfffeef 	blne	2c0 <atexit>
     700:	e8bd4008 	pop	{r3, lr}
     704:	e12fff1e 	bx	lr
     708:	00003cec 	.word	0x00003cec
     70c:	00000710 	.word	0x00000710

00000710 <__libc_fini_array>:
     710:	e92d4038 	push	{r3, r4, r5, lr}
     714:	e59f5034 	ldr	r5, [pc, #52]	; 750 <__libc_fini_array+0x40>
     718:	e59f4034 	ldr	r4, [pc, #52]	; 754 <__libc_fini_array+0x44>
     71c:	e0654004 	rsb	r4, r5, r4
     720:	e1b04144 	asrs	r4, r4, #2
     724:	10855104 	addne	r5, r5, r4, lsl #2
     728:	0a000005 	beq	744 <__libc_fini_array+0x34>
     72c:	e2444001 	sub	r4, r4, #1
     730:	e5353004 	ldr	r3, [r5, #-4]!
     734:	e1a0e00f 	mov	lr, pc
     738:	e12fff13 	bx	r3
     73c:	e3540000 	cmp	r4, #0
     740:	1afffff9 	bne	72c <__libc_fini_array+0x1c>
     744:	eb000d68 	bl	3cec <__libc_fini>
     748:	e8bd4038 	pop	{r3, r4, r5, lr}
     74c:	e12fff1e 	bx	lr
     750:	00003d04 	.word	0x00003d04
     754:	00003d08 	.word	0x00003d08

00000758 <__sfvwrite_r>:
     758:	e92d4ff0 	push	{r4, r5, r6, r7, r8, r9, r10, r11, lr}
     75c:	e5923008 	ldr	r3, [r2, #8]
     760:	e3530000 	cmp	r3, #0
     764:	e24dd00c 	sub	sp, sp, #12
     768:	e1a06002 	mov	r6, r2
     76c:	e1a0b000 	mov	r11, r0
     770:	e1a04001 	mov	r4, r1
     774:	0a00004f 	beq	8b8 <__sfvwrite_r+0x160>
     778:	e1d130bc 	ldrh	r3, [r1, #12]
     77c:	e1a03803 	lsl	r3, r3, #16
     780:	e3130702 	tst	r3, #524288	; 0x80000
     784:	e1a02823 	lsr	r2, r3, #16
     788:	0a00004e 	beq	8c8 <__sfvwrite_r+0x170>
     78c:	e5911010 	ldr	r1, [r1, #16]
     790:	e3510000 	cmp	r1, #0
     794:	0a00004b 	beq	8c8 <__sfvwrite_r+0x170>
     798:	e2121002 	ands	r1, r2, #2
     79c:	13a08000 	movne	r8, #0
     7a0:	e5965000 	ldr	r5, [r6]
     7a4:	11a07008 	movne	r7, r8
     7a8:	1a00002e 	bne	868 <__sfvwrite_r+0x110>
     7ac:	e2129001 	ands	r9, r2, #1
     7b0:	1a00005f 	bne	934 <__sfvwrite_r+0x1dc>
     7b4:	e1a07009 	mov	r7, r9
     7b8:	e3570000 	cmp	r7, #0
     7bc:	0a000022 	beq	84c <__sfvwrite_r+0xf4>
     7c0:	e3130402 	tst	r3, #33554432	; 0x2000000
     7c4:	e5948008 	ldr	r8, [r4, #8]
     7c8:	e1a03823 	lsr	r3, r3, #16
     7cc:	0a00008a 	beq	9fc <__sfvwrite_r+0x2a4>
     7d0:	e1570008 	cmp	r7, r8
     7d4:	3a0000af 	bcc	a98 <__sfvwrite_r+0x340>
     7d8:	e3130d12 	tst	r3, #1152	; 0x480
     7dc:	1a0000c9 	bne	b08 <__sfvwrite_r+0x3b0>
     7e0:	e5940000 	ldr	r0, [r4]
     7e4:	e1a03008 	mov	r3, r8
     7e8:	e1a0a008 	mov	r10, r8
     7ec:	e1a08007 	mov	r8, r7
     7f0:	e1a02003 	mov	r2, r3
     7f4:	e1a01009 	mov	r1, r9
     7f8:	e58d3000 	str	r3, [sp]
     7fc:	eb000389 	bl	1628 <memmove>
     800:	e5941008 	ldr	r1, [r4, #8]
     804:	e59d3000 	ldr	r3, [sp]
     808:	e5942000 	ldr	r2, [r4]
     80c:	e06aa001 	rsb	r10, r10, r1
     810:	e0823003 	add	r3, r2, r3
     814:	e584a008 	str	r10, [r4, #8]
     818:	e5843000 	str	r3, [r4]
     81c:	e1a03007 	mov	r3, r7
     820:	e5962008 	ldr	r2, [r6, #8]
     824:	e0688002 	rsb	r8, r8, r2
     828:	e3580000 	cmp	r8, #0
     82c:	e0899003 	add	r9, r9, r3
     830:	e0637007 	rsb	r7, r3, r7
     834:	e5868008 	str	r8, [r6, #8]
     838:	0a00001e 	beq	8b8 <__sfvwrite_r+0x160>
     83c:	e1d430bc 	ldrh	r3, [r4, #12]
     840:	e3570000 	cmp	r7, #0
     844:	e1a03803 	lsl	r3, r3, #16
     848:	1affffdc 	bne	7c0 <__sfvwrite_r+0x68>
     84c:	e5959000 	ldr	r9, [r5]
     850:	e5957004 	ldr	r7, [r5, #4]
     854:	e2855008 	add	r5, r5, #8
     858:	eaffffd6 	b	7b8 <__sfvwrite_r+0x60>
     85c:	e5958000 	ldr	r8, [r5]
     860:	e5957004 	ldr	r7, [r5, #4]
     864:	e2855008 	add	r5, r5, #8
     868:	e3570000 	cmp	r7, #0
     86c:	e1a02008 	mov	r2, r8
     870:	e1a0000b 	mov	r0, r11
     874:	0afffff8 	beq	85c <__sfvwrite_r+0x104>
     878:	e3570b01 	cmp	r7, #1024	; 0x400
     87c:	31a03007 	movcc	r3, r7
     880:	23a03b01 	movcs	r3, #1024	; 0x400
     884:	e594101c 	ldr	r1, [r4, #28]
     888:	e594c024 	ldr	r12, [r4, #36]	; 0x24
     88c:	e1a0e00f 	mov	lr, pc
     890:	e12fff1c 	bx	r12
     894:	e3500000 	cmp	r0, #0
     898:	da00001e 	ble	918 <__sfvwrite_r+0x1c0>
     89c:	e5963008 	ldr	r3, [r6, #8]
     8a0:	e0603003 	rsb	r3, r0, r3
     8a4:	e3530000 	cmp	r3, #0
     8a8:	e0888000 	add	r8, r8, r0
     8ac:	e0607007 	rsb	r7, r0, r7
     8b0:	e5863008 	str	r3, [r6, #8]
     8b4:	1affffeb 	bne	868 <__sfvwrite_r+0x110>
     8b8:	e3a00000 	mov	r0, #0
     8bc:	e28dd00c 	add	sp, sp, #12
     8c0:	e8bd4ff0 	pop	{r4, r5, r6, r7, r8, r9, r10, r11, lr}
     8c4:	e12fff1e 	bx	lr
     8c8:	e1a0000b 	mov	r0, r11
     8cc:	e1a01004 	mov	r1, r4
     8d0:	eb0005d0 	bl	2018 <__swsetup_r>
     8d4:	e3500000 	cmp	r0, #0
     8d8:	1a0000cc 	bne	c10 <__sfvwrite_r+0x4b8>
     8dc:	e1d430bc 	ldrh	r3, [r4, #12]
     8e0:	e1a03803 	lsl	r3, r3, #16
     8e4:	e1a02823 	lsr	r2, r3, #16
     8e8:	eaffffaa 	b	798 <__sfvwrite_r+0x40>
     8ec:	e1a01009 	mov	r1, r9
     8f0:	e1a02008 	mov	r2, r8
     8f4:	eb00034b 	bl	1628 <memmove>
     8f8:	e5943000 	ldr	r3, [r4]
     8fc:	e0833008 	add	r3, r3, r8
     900:	e5843000 	str	r3, [r4]
     904:	e1a0000b 	mov	r0, r11
     908:	e1a01004 	mov	r1, r4
     90c:	eb0006a9 	bl	23b8 <_fflush_r>
     910:	e3500000 	cmp	r0, #0
     914:	0a000049 	beq	a40 <__sfvwrite_r+0x2e8>
     918:	e1d430bc 	ldrh	r3, [r4, #12]
     91c:	e3833040 	orr	r3, r3, #64	; 0x40
     920:	e3e00000 	mvn	r0, #0
     924:	e1c430bc 	strh	r3, [r4, #12]
     928:	e28dd00c 	add	sp, sp, #12
     92c:	e8bd4ff0 	pop	{r4, r5, r6, r7, r8, r9, r10, r11, lr}
     930:	e12fff1e 	bx	lr
     934:	e58d1004 	str	r1, [sp, #4]
     938:	e1a09001 	mov	r9, r1
     93c:	e1a0a001 	mov	r10, r1
     940:	e1a08001 	mov	r8, r1
     944:	e3580000 	cmp	r8, #0
     948:	0a000025 	beq	9e4 <__sfvwrite_r+0x28c>
     94c:	e59d3004 	ldr	r3, [sp, #4]
     950:	e3530000 	cmp	r3, #0
     954:	0a000060 	beq	adc <__sfvwrite_r+0x384>
     958:	e5942010 	ldr	r2, [r4, #16]
     95c:	e5940000 	ldr	r0, [r4]
     960:	e1590008 	cmp	r9, r8
     964:	31a03009 	movcc	r3, r9
     968:	21a03008 	movcs	r3, r8
     96c:	e1500002 	cmp	r0, r2
     970:	e1a07003 	mov	r7, r3
     974:	e5941008 	ldr	r1, [r4, #8]
     978:	e5942014 	ldr	r2, [r4, #20]
     97c:	9a000002 	bls	98c <__sfvwrite_r+0x234>
     980:	e081c002 	add	r12, r1, r2
     984:	e153000c 	cmp	r3, r12
     988:	ca000084 	bgt	ba0 <__sfvwrite_r+0x448>
     98c:	e1530002 	cmp	r3, r2
     990:	ba00002c 	blt	a48 <__sfvwrite_r+0x2f0>
     994:	e1a03002 	mov	r3, r2
     998:	e1a0000b 	mov	r0, r11
     99c:	e594101c 	ldr	r1, [r4, #28]
     9a0:	e1a0200a 	mov	r2, r10
     9a4:	e594c024 	ldr	r12, [r4, #36]	; 0x24
     9a8:	e1a0e00f 	mov	lr, pc
     9ac:	e12fff1c 	bx	r12
     9b0:	e2507000 	subs	r7, r0, #0
     9b4:	daffffd7 	ble	918 <__sfvwrite_r+0x1c0>
     9b8:	e0599007 	subs	r9, r9, r7
     9bc:	0a00002e 	beq	a7c <__sfvwrite_r+0x324>
     9c0:	e5963008 	ldr	r3, [r6, #8]
     9c4:	e0673003 	rsb	r3, r7, r3
     9c8:	e3530000 	cmp	r3, #0
     9cc:	e08aa007 	add	r10, r10, r7
     9d0:	e0678008 	rsb	r8, r7, r8
     9d4:	e5863008 	str	r3, [r6, #8]
     9d8:	0affffb6 	beq	8b8 <__sfvwrite_r+0x160>
     9dc:	e3580000 	cmp	r8, #0
     9e0:	1affffd9 	bne	94c <__sfvwrite_r+0x1f4>
     9e4:	e3a03000 	mov	r3, #0
     9e8:	e595a000 	ldr	r10, [r5]
     9ec:	e5958004 	ldr	r8, [r5, #4]
     9f0:	e58d3004 	str	r3, [sp, #4]
     9f4:	e2855008 	add	r5, r5, #8
     9f8:	eaffffd1 	b	944 <__sfvwrite_r+0x1ec>
     9fc:	e5940000 	ldr	r0, [r4]
     a00:	e5943010 	ldr	r3, [r4, #16]
     a04:	e1500003 	cmp	r0, r3
     a08:	9a000001 	bls	a14 <__sfvwrite_r+0x2bc>
     a0c:	e1570008 	cmp	r7, r8
     a10:	8affffb5 	bhi	8ec <__sfvwrite_r+0x194>
     a14:	e5943014 	ldr	r3, [r4, #20]
     a18:	e1570003 	cmp	r7, r3
     a1c:	3a000022 	bcc	aac <__sfvwrite_r+0x354>
     a20:	e1a0000b 	mov	r0, r11
     a24:	e594101c 	ldr	r1, [r4, #28]
     a28:	e1a02009 	mov	r2, r9
     a2c:	e594c024 	ldr	r12, [r4, #36]	; 0x24
     a30:	e1a0e00f 	mov	lr, pc
     a34:	e12fff1c 	bx	r12
     a38:	e2508000 	subs	r8, r0, #0
     a3c:	daffffb5 	ble	918 <__sfvwrite_r+0x1c0>
     a40:	e1a03008 	mov	r3, r8
     a44:	eaffff75 	b	820 <__sfvwrite_r+0xc8>
     a48:	e1a02003 	mov	r2, r3
     a4c:	e1a0100a 	mov	r1, r10
     a50:	e58d3000 	str	r3, [sp]
     a54:	eb0002f3 	bl	1628 <memmove>
     a58:	e59d3000 	ldr	r3, [sp]
     a5c:	e5942008 	ldr	r2, [r4, #8]
     a60:	e5941000 	ldr	r1, [r4]
     a64:	e0632002 	rsb	r2, r3, r2
     a68:	e0599007 	subs	r9, r9, r7
     a6c:	e0813003 	add	r3, r1, r3
     a70:	e5842008 	str	r2, [r4, #8]
     a74:	e5843000 	str	r3, [r4]
     a78:	1affffd0 	bne	9c0 <__sfvwrite_r+0x268>
     a7c:	e1a0000b 	mov	r0, r11
     a80:	e1a01004 	mov	r1, r4
     a84:	eb00064b 	bl	23b8 <_fflush_r>
     a88:	e3500000 	cmp	r0, #0
     a8c:	1affffa1 	bne	918 <__sfvwrite_r+0x1c0>
     a90:	e58d9004 	str	r9, [sp, #4]
     a94:	eaffffc9 	b	9c0 <__sfvwrite_r+0x268>
     a98:	e5940000 	ldr	r0, [r4]
     a9c:	e1a0a007 	mov	r10, r7
     aa0:	e1a08007 	mov	r8, r7
     aa4:	e1a03007 	mov	r3, r7
     aa8:	eaffff50 	b	7f0 <__sfvwrite_r+0x98>
     aac:	e1a02007 	mov	r2, r7
     ab0:	e1a01009 	mov	r1, r9
     ab4:	eb0002db 	bl	1628 <memmove>
     ab8:	e5942008 	ldr	r2, [r4, #8]
     abc:	e5943000 	ldr	r3, [r4]
     ac0:	e0672002 	rsb	r2, r7, r2
     ac4:	e0833007 	add	r3, r3, r7
     ac8:	e5843000 	str	r3, [r4]
     acc:	e5842008 	str	r2, [r4, #8]
     ad0:	e1a08007 	mov	r8, r7
     ad4:	e1a03007 	mov	r3, r7
     ad8:	eaffff50 	b	820 <__sfvwrite_r+0xc8>
     adc:	e1a0000a 	mov	r0, r10
     ae0:	e3a0100a 	mov	r1, #10
     ae4:	e1a02008 	mov	r2, r8
     ae8:	eb00024d 	bl	1424 <memchr>
     aec:	e3500000 	cmp	r0, #0
     af0:	12809001 	addne	r9, r0, #1
     af4:	e3a03001 	mov	r3, #1
     af8:	106a9009 	rsbne	r9, r10, r9
     afc:	02889001 	addeq	r9, r8, #1
     b00:	e58d3004 	str	r3, [sp, #4]
     b04:	eaffff93 	b	958 <__sfvwrite_r+0x200>
     b08:	e5941010 	ldr	r1, [r4, #16]
     b0c:	e594a000 	ldr	r10, [r4]
     b10:	e5948014 	ldr	r8, [r4, #20]
     b14:	e061a00a 	rsb	r10, r1, r10
     b18:	e0888088 	add	r8, r8, r8, lsl #1
     b1c:	e28a2001 	add	r2, r10, #1
     b20:	e0888fa8 	add	r8, r8, r8, lsr #31
     b24:	e0822007 	add	r2, r2, r7
     b28:	e1a080c8 	asr	r8, r8, #1
     b2c:	e1580002 	cmp	r8, r2
     b30:	31a08002 	movcc	r8, r2
     b34:	21a02008 	movcs	r2, r8
     b38:	e3130b01 	tst	r3, #1024	; 0x400
     b3c:	0a000027 	beq	be0 <__sfvwrite_r+0x488>
     b40:	e1a01002 	mov	r1, r2
     b44:	e1a0000b 	mov	r0, r11
     b48:	eb00006a 	bl	cf8 <_malloc_r>
     b4c:	e2503000 	subs	r3, r0, #0
     b50:	0a000030 	beq	c18 <__sfvwrite_r+0x4c0>
     b54:	e5941010 	ldr	r1, [r4, #16]
     b58:	e1a0200a 	mov	r2, r10
     b5c:	e58d3000 	str	r3, [sp]
     b60:	eb000274 	bl	1538 <memcpy>
     b64:	e1d420bc 	ldrh	r2, [r4, #12]
     b68:	e3c22d12 	bic	r2, r2, #1152	; 0x480
     b6c:	e3822080 	orr	r2, r2, #128	; 0x80
     b70:	e1c420bc 	strh	r2, [r4, #12]
     b74:	e59d3000 	ldr	r3, [sp]
     b78:	e083000a 	add	r0, r3, r10
     b7c:	e06aa008 	rsb	r10, r10, r8
     b80:	e5843010 	str	r3, [r4, #16]
     b84:	e584a008 	str	r10, [r4, #8]
     b88:	e5848014 	str	r8, [r4, #20]
     b8c:	e5840000 	str	r0, [r4]
     b90:	e1a0a007 	mov	r10, r7
     b94:	e1a08007 	mov	r8, r7
     b98:	e1a03007 	mov	r3, r7
     b9c:	eaffff13 	b	7f0 <__sfvwrite_r+0x98>
     ba0:	e1a0200c 	mov	r2, r12
     ba4:	e1a0100a 	mov	r1, r10
     ba8:	e58dc000 	str	r12, [sp]
     bac:	eb00029d 	bl	1628 <memmove>
     bb0:	e59dc000 	ldr	r12, [sp]
     bb4:	e5943000 	ldr	r3, [r4]
     bb8:	e083300c 	add	r3, r3, r12
     bbc:	e5843000 	str	r3, [r4]
     bc0:	e1a0000b 	mov	r0, r11
     bc4:	e1a01004 	mov	r1, r4
     bc8:	eb0005fa 	bl	23b8 <_fflush_r>
     bcc:	e3500000 	cmp	r0, #0
     bd0:	e59dc000 	ldr	r12, [sp]
     bd4:	1affff4f 	bne	918 <__sfvwrite_r+0x1c0>
     bd8:	e1a0700c 	mov	r7, r12
     bdc:	eaffff75 	b	9b8 <__sfvwrite_r+0x260>
     be0:	e1a0000b 	mov	r0, r11
     be4:	eb000334 	bl	18bc <_realloc_r>
     be8:	e2503000 	subs	r3, r0, #0
     bec:	1affffe1 	bne	b78 <__sfvwrite_r+0x420>
     bf0:	e1a0000b 	mov	r0, r11
     bf4:	e5941010 	ldr	r1, [r4, #16]
     bf8:	eb000727 	bl	289c <_free_r>
     bfc:	e1d430bc 	ldrh	r3, [r4, #12]
     c00:	e3a0200c 	mov	r2, #12
     c04:	e3c33080 	bic	r3, r3, #128	; 0x80
     c08:	e58b2000 	str	r2, [r11]
     c0c:	eaffff42 	b	91c <__sfvwrite_r+0x1c4>
     c10:	e3e00000 	mvn	r0, #0
     c14:	eaffff28 	b	8bc <__sfvwrite_r+0x164>
     c18:	e3a0300c 	mov	r3, #12
     c1c:	e58b3000 	str	r3, [r11]
     c20:	e1d430bc 	ldrh	r3, [r4, #12]
     c24:	eaffff3c 	b	91c <__sfvwrite_r+0x1c4>

00000c28 <_getc_r>:
     c28:	e92d4038 	push	{r3, r4, r5, lr}
     c2c:	e2505000 	subs	r5, r0, #0
     c30:	e1a04001 	mov	r4, r1
     c34:	0a000002 	beq	c44 <_getc_r+0x1c>
     c38:	e5953038 	ldr	r3, [r5, #56]	; 0x38
     c3c:	e3530000 	cmp	r3, #0
     c40:	0a00000a 	beq	c70 <_getc_r+0x48>
     c44:	e5943004 	ldr	r3, [r4, #4]
     c48:	e2433001 	sub	r3, r3, #1
     c4c:	e3530000 	cmp	r3, #0
     c50:	e5843004 	str	r3, [r4, #4]
     c54:	ba000007 	blt	c78 <_getc_r+0x50>
     c58:	e5943000 	ldr	r3, [r4]
     c5c:	e2832001 	add	r2, r3, #1
     c60:	e5842000 	str	r2, [r4]
     c64:	e5d30000 	ldrb	r0, [r3]
     c68:	e8bd4038 	pop	{r3, r4, r5, lr}
     c6c:	e12fff1e 	bx	lr
     c70:	eb00061b 	bl	24e4 <__sinit>
     c74:	eafffff2 	b	c44 <_getc_r+0x1c>
     c78:	e1a00005 	mov	r0, r5
     c7c:	e1a01004 	mov	r1, r4
     c80:	eb000468 	bl	1e28 <__srget_r>
     c84:	eafffff7 	b	c68 <_getc_r+0x40>

00000c88 <getc>:
     c88:	e92d4038 	push	{r3, r4, r5, lr}
     c8c:	e59f3060 	ldr	r3, [pc, #96]	; cf4 <getc+0x6c>
     c90:	e5935000 	ldr	r5, [r3]
     c94:	e3550000 	cmp	r5, #0
     c98:	e1a04000 	mov	r4, r0
     c9c:	0a000002 	beq	cac <getc+0x24>
     ca0:	e5953038 	ldr	r3, [r5, #56]	; 0x38
     ca4:	e3530000 	cmp	r3, #0
     ca8:	0a00000a 	beq	cd8 <getc+0x50>
     cac:	e5943004 	ldr	r3, [r4, #4]
     cb0:	e2433001 	sub	r3, r3, #1
     cb4:	e3530000 	cmp	r3, #0
     cb8:	e5843004 	str	r3, [r4, #4]
     cbc:	ba000008 	blt	ce4 <getc+0x5c>
     cc0:	e5943000 	ldr	r3, [r4]
     cc4:	e2832001 	add	r2, r3, #1
     cc8:	e5842000 	str	r2, [r4]
     ccc:	e5d30000 	ldrb	r0, [r3]
     cd0:	e8bd4038 	pop	{r3, r4, r5, lr}
     cd4:	e12fff1e 	bx	lr
     cd8:	e1a00005 	mov	r0, r5
     cdc:	eb000600 	bl	24e4 <__sinit>
     ce0:	eafffff1 	b	cac <getc+0x24>
     ce4:	e1a00005 	mov	r0, r5
     ce8:	e1a01004 	mov	r1, r4
     cec:	eb00044d 	bl	1e28 <__srget_r>
     cf0:	eafffff6 	b	cd0 <getc+0x48>
     cf4:	00003d28 	.word	0x00003d28

00000cf8 <_malloc_r>:
     cf8:	e92d4ff0 	push	{r4, r5, r6, r7, r8, r9, r10, r11, lr}
     cfc:	e281500b 	add	r5, r1, #11
     d00:	e3550016 	cmp	r5, #22
     d04:	83c55007 	bichi	r5, r5, #7
     d08:	81a03fa5 	lsrhi	r3, r5, #31
     d0c:	93a03000 	movls	r3, #0
     d10:	93a05010 	movls	r5, #16
     d14:	e1550001 	cmp	r5, r1
     d18:	21a01003 	movcs	r1, r3
     d1c:	33831001 	orrcc	r1, r3, #1
     d20:	e3510000 	cmp	r1, #0
     d24:	13a0300c 	movne	r3, #12
     d28:	e24dd00c 	sub	sp, sp, #12
     d2c:	e1a06000 	mov	r6, r0
     d30:	15803000 	strne	r3, [r0]
     d34:	13a04000 	movne	r4, #0
     d38:	1a000015 	bne	d94 <_malloc_r+0x9c>
     d3c:	eb000286 	bl	175c <__malloc_lock>
     d40:	e3550f7e 	cmp	r5, #504	; 0x1f8
     d44:	2a000016 	bcs	da4 <_malloc_r+0xac>
     d48:	e59f76c8 	ldr	r7, [pc, #1736]	; 1418 <_malloc_r+0x720>
     d4c:	e1a0e1a5 	lsr	lr, r5, #3
     d50:	e087318e 	add	r3, r7, lr, lsl #3
     d54:	e593400c 	ldr	r4, [r3, #12]
     d58:	e1540003 	cmp	r4, r3
     d5c:	0a000145 	beq	1278 <_malloc_r+0x580>
     d60:	e5943004 	ldr	r3, [r4, #4]
     d64:	e3c33003 	bic	r3, r3, #3
     d68:	e0843003 	add	r3, r4, r3
     d6c:	e593c004 	ldr	r12, [r3, #4]
     d70:	e2841008 	add	r1, r4, #8
     d74:	e8910006 	ldm	r1, {r1, r2}
     d78:	e38cc001 	orr	r12, r12, #1
     d7c:	e581200c 	str	r2, [r1, #12]
     d80:	e1a00006 	mov	r0, r6
     d84:	e5821008 	str	r1, [r2, #8]
     d88:	e583c004 	str	r12, [r3, #4]
     d8c:	eb000273 	bl	1760 <__malloc_unlock>
     d90:	e2844008 	add	r4, r4, #8
     d94:	e1a00004 	mov	r0, r4
     d98:	e28dd00c 	add	sp, sp, #12
     d9c:	e8bd4ff0 	pop	{r4, r5, r6, r7, r8, r9, r10, r11, lr}
     da0:	e12fff1e 	bx	lr
     da4:	e1b0e4a5 	lsrs	lr, r5, #9
     da8:	03a0107e 	moveq	r1, #126	; 0x7e
     dac:	03a0e03f 	moveq	lr, #63	; 0x3f
     db0:	1a000061 	bne	f3c <_malloc_r+0x244>
     db4:	e59f765c 	ldr	r7, [pc, #1628]	; 1418 <_malloc_r+0x720>
     db8:	e0871101 	add	r1, r7, r1, lsl #2
     dbc:	e591400c 	ldr	r4, [r1, #12]
     dc0:	e1510004 	cmp	r1, r4
     dc4:	1a000005 	bne	de0 <_malloc_r+0xe8>
     dc8:	ea00000a 	b	df8 <_malloc_r+0x100>
     dcc:	e3530000 	cmp	r3, #0
     dd0:	aa0000de 	bge	1150 <_malloc_r+0x458>
     dd4:	e594400c 	ldr	r4, [r4, #12]
     dd8:	e1510004 	cmp	r1, r4
     ddc:	0a000005 	beq	df8 <_malloc_r+0x100>
     de0:	e5942004 	ldr	r2, [r4, #4]
     de4:	e3c22003 	bic	r2, r2, #3
     de8:	e0653002 	rsb	r3, r5, r2
     dec:	e353000f 	cmp	r3, #15
     df0:	dafffff5 	ble	dcc <_malloc_r+0xd4>
     df4:	e24ee001 	sub	lr, lr, #1
     df8:	e28ee001 	add	lr, lr, #1
     dfc:	e59f3614 	ldr	r3, [pc, #1556]	; 1418 <_malloc_r+0x720>
     e00:	e5974010 	ldr	r4, [r7, #16]
     e04:	e2838008 	add	r8, r3, #8
     e08:	e1540008 	cmp	r4, r8
     e0c:	05931004 	ldreq	r1, [r3, #4]
     e10:	0a000016 	beq	e70 <_malloc_r+0x178>
     e14:	e5942004 	ldr	r2, [r4, #4]
     e18:	e3c22003 	bic	r2, r2, #3
     e1c:	e0651002 	rsb	r1, r5, r2
     e20:	e351000f 	cmp	r1, #15
     e24:	ca000101 	bgt	1230 <_malloc_r+0x538>
     e28:	e3510000 	cmp	r1, #0
     e2c:	e5838014 	str	r8, [r3, #20]
     e30:	e5838010 	str	r8, [r3, #16]
     e34:	aa000046 	bge	f54 <_malloc_r+0x25c>
     e38:	e3520c02 	cmp	r2, #512	; 0x200
     e3c:	2a0000dc 	bcs	11b4 <_malloc_r+0x4bc>
     e40:	e5930004 	ldr	r0, [r3, #4]
     e44:	e1a021a2 	lsr	r2, r2, #3
     e48:	e1a01142 	asr	r1, r2, #2
     e4c:	e3a0c001 	mov	r12, #1
     e50:	e180111c 	orr	r1, r0, r12, lsl r1
     e54:	e0832182 	add	r2, r3, r2, lsl #3
     e58:	e5920008 	ldr	r0, [r2, #8]
     e5c:	e5831004 	str	r1, [r3, #4]
     e60:	e5840008 	str	r0, [r4, #8]
     e64:	e584200c 	str	r2, [r4, #12]
     e68:	e5824008 	str	r4, [r2, #8]
     e6c:	e580400c 	str	r4, [r0, #12]
     e70:	e1a0314e 	asr	r3, lr, #2
     e74:	e3a00001 	mov	r0, #1
     e78:	e1a00310 	lsl	r0, r0, r3
     e7c:	e1500001 	cmp	r0, r1
     e80:	8a00003e 	bhi	f80 <_malloc_r+0x288>
     e84:	e1110000 	tst	r1, r0
     e88:	1a000008 	bne	eb0 <_malloc_r+0x1b8>
     e8c:	e1a00080 	lsl	r0, r0, #1
     e90:	e3cee003 	bic	lr, lr, #3
     e94:	e1110000 	tst	r1, r0
     e98:	e28ee004 	add	lr, lr, #4
     e9c:	1a000003 	bne	eb0 <_malloc_r+0x1b8>
     ea0:	e1a00080 	lsl	r0, r0, #1
     ea4:	e1110000 	tst	r1, r0
     ea8:	e28ee004 	add	lr, lr, #4
     eac:	0afffffb 	beq	ea0 <_malloc_r+0x1a8>
     eb0:	e087418e 	add	r4, r7, lr, lsl #3
     eb4:	e1a0c004 	mov	r12, r4
     eb8:	e1a0900e 	mov	r9, lr
     ebc:	e59c300c 	ldr	r3, [r12, #12]
     ec0:	e15c0003 	cmp	r12, r3
     ec4:	1a000005 	bne	ee0 <_malloc_r+0x1e8>
     ec8:	ea0000e5 	b	1264 <_malloc_r+0x56c>
     ecc:	e3520000 	cmp	r2, #0
     ed0:	aa0000ee 	bge	1290 <_malloc_r+0x598>
     ed4:	e593300c 	ldr	r3, [r3, #12]
     ed8:	e15c0003 	cmp	r12, r3
     edc:	0a0000e0 	beq	1264 <_malloc_r+0x56c>
     ee0:	e5931004 	ldr	r1, [r3, #4]
     ee4:	e3c11003 	bic	r1, r1, #3
     ee8:	e0652001 	rsb	r2, r5, r1
     eec:	e352000f 	cmp	r2, #15
     ef0:	dafffff5 	ble	ecc <_malloc_r+0x1d4>
     ef4:	e1a04003 	mov	r4, r3
     ef8:	e5b4c008 	ldr	r12, [r4, #8]!
     efc:	e593100c 	ldr	r1, [r3, #12]
     f00:	e3859001 	orr	r9, r5, #1
     f04:	e382e001 	orr	lr, r2, #1
     f08:	e0835005 	add	r5, r3, r5
     f0c:	e5839004 	str	r9, [r3, #4]
     f10:	e1a00006 	mov	r0, r6
     f14:	e58c100c 	str	r1, [r12, #12]
     f18:	e581c008 	str	r12, [r1, #8]
     f1c:	e5875014 	str	r5, [r7, #20]
     f20:	e5875010 	str	r5, [r7, #16]
     f24:	e585800c 	str	r8, [r5, #12]
     f28:	e5858008 	str	r8, [r5, #8]
     f2c:	e585e004 	str	lr, [r5, #4]
     f30:	e7852002 	str	r2, [r5, r2]
     f34:	eb000209 	bl	1760 <__malloc_unlock>
     f38:	eaffff95 	b	d94 <_malloc_r+0x9c>
     f3c:	e35e0004 	cmp	lr, #4
     f40:	8a000091 	bhi	118c <_malloc_r+0x494>
     f44:	e1a0e325 	lsr	lr, r5, #6
     f48:	e28ee038 	add	lr, lr, #56	; 0x38
     f4c:	e1a0108e 	lsl	r1, lr, #1
     f50:	eaffff97 	b	db4 <_malloc_r+0xbc>
     f54:	e0842002 	add	r2, r4, r2
     f58:	e5923004 	ldr	r3, [r2, #4]
     f5c:	e3833001 	orr	r3, r3, #1
     f60:	e1a00006 	mov	r0, r6
     f64:	e5823004 	str	r3, [r2, #4]
     f68:	eb0001fc 	bl	1760 <__malloc_unlock>
     f6c:	e2844008 	add	r4, r4, #8
     f70:	e1a00004 	mov	r0, r4
     f74:	e28dd00c 	add	sp, sp, #12
     f78:	e8bd4ff0 	pop	{r4, r5, r6, r7, r8, r9, r10, r11, lr}
     f7c:	e12fff1e 	bx	lr
     f80:	e5974008 	ldr	r4, [r7, #8]
     f84:	e5949004 	ldr	r9, [r4, #4]
     f88:	e3c99003 	bic	r9, r9, #3
     f8c:	e1550009 	cmp	r5, r9
     f90:	8a000002 	bhi	fa0 <_malloc_r+0x2a8>
     f94:	e0653009 	rsb	r3, r5, r9
     f98:	e353000f 	cmp	r3, #15
     f9c:	ca00005e 	bgt	111c <_malloc_r+0x424>
     fa0:	e59fa474 	ldr	r10, [pc, #1140]	; 141c <_malloc_r+0x724>
     fa4:	e5973408 	ldr	r3, [r7, #1032]	; 0x408
     fa8:	e59ab000 	ldr	r11, [r10]
     fac:	e3730001 	cmn	r3, #1
     fb0:	e085b00b 	add	r11, r5, r11
     fb4:	128bba01 	addne	r11, r11, #4096	; 0x1000
     fb8:	128bb00f 	addne	r11, r11, #15
     fbc:	13cbbeff 	bicne	r11, r11, #4080	; 0xff0
     fc0:	028bb010 	addeq	r11, r11, #16
     fc4:	13cbb00f 	bicne	r11, r11, #15
     fc8:	e0842009 	add	r2, r4, r9
     fcc:	e1a00006 	mov	r0, r6
     fd0:	e1a0100b 	mov	r1, r11
     fd4:	e58d2004 	str	r2, [sp, #4]
     fd8:	eb0003ae 	bl	1e98 <_sbrk_r>
     fdc:	e3700001 	cmn	r0, #1
     fe0:	e1a08000 	mov	r8, r0
     fe4:	e59d2004 	ldr	r2, [sp, #4]
     fe8:	0a0000ba 	beq	12d8 <_malloc_r+0x5e0>
     fec:	e1520000 	cmp	r2, r0
     ff0:	8a0000b6 	bhi	12d0 <_malloc_r+0x5d8>
     ff4:	e59a3004 	ldr	r3, [r10, #4]
     ff8:	e1520008 	cmp	r2, r8
     ffc:	e08b3003 	add	r3, r11, r3
    1000:	e58a3004 	str	r3, [r10, #4]
    1004:	0a0000e8 	beq	13ac <_malloc_r+0x6b4>
    1008:	e5971408 	ldr	r1, [r7, #1032]	; 0x408
    100c:	e3710001 	cmn	r1, #1
    1010:	10622008 	rsbne	r2, r2, r8
    1014:	e59f13fc 	ldr	r1, [pc, #1020]	; 1418 <_malloc_r+0x720>
    1018:	10833002 	addne	r3, r3, r2
    101c:	05818408 	streq	r8, [r1, #1032]	; 0x408
    1020:	158a3004 	strne	r3, [r10, #4]
    1024:	e2183007 	ands	r3, r8, #7
    1028:	12632008 	rsbne	r2, r3, #8
    102c:	10888002 	addne	r8, r8, r2
    1030:	12633a01 	rsbne	r3, r3, #4096	; 0x1000
    1034:	12832008 	addne	r2, r3, #8
    1038:	e088300b 	add	r3, r8, r11
    103c:	03a02a01 	moveq	r2, #4096	; 0x1000
    1040:	e1a03a03 	lsl	r3, r3, #20
    1044:	e042ba23 	sub	r11, r2, r3, lsr #20
    1048:	e1a0100b 	mov	r1, r11
    104c:	e1a00006 	mov	r0, r6
    1050:	eb000390 	bl	1e98 <_sbrk_r>
    1054:	e3700001 	cmn	r0, #1
    1058:	10682000 	rsbne	r2, r8, r0
    105c:	e59a3004 	ldr	r3, [r10, #4]
    1060:	108b2002 	addne	r2, r11, r2
    1064:	03a0b000 	moveq	r11, #0
    1068:	13822001 	orrne	r2, r2, #1
    106c:	03a02001 	moveq	r2, #1
    1070:	e08b3003 	add	r3, r11, r3
    1074:	e1540007 	cmp	r4, r7
    1078:	e5878008 	str	r8, [r7, #8]
    107c:	e58a3004 	str	r3, [r10, #4]
    1080:	e5882004 	str	r2, [r8, #4]
    1084:	e59fb390 	ldr	r11, [pc, #912]	; 141c <_malloc_r+0x724>
    1088:	0a00000d 	beq	10c4 <_malloc_r+0x3cc>
    108c:	e359000f 	cmp	r9, #15
    1090:	9a0000b1 	bls	135c <_malloc_r+0x664>
    1094:	e5940004 	ldr	r0, [r4, #4]
    1098:	e249200c 	sub	r2, r9, #12
    109c:	e3c22007 	bic	r2, r2, #7
    10a0:	e2000001 	and	r0, r0, #1
    10a4:	e1820000 	orr	r0, r2, r0
    10a8:	e3a01005 	mov	r1, #5
    10ac:	e352000f 	cmp	r2, #15
    10b0:	e0842002 	add	r2, r4, r2
    10b4:	e5840004 	str	r0, [r4, #4]
    10b8:	e5821004 	str	r1, [r2, #4]
    10bc:	e5821008 	str	r1, [r2, #8]
    10c0:	8a0000c0 	bhi	13c8 <_malloc_r+0x6d0>
    10c4:	e59a202c 	ldr	r2, [r10, #44]	; 0x2c
    10c8:	e1530002 	cmp	r3, r2
    10cc:	e59f2348 	ldr	r2, [pc, #840]	; 141c <_malloc_r+0x724>
    10d0:	8582302c 	strhi	r3, [r2, #44]	; 0x2c
    10d4:	e59a2030 	ldr	r2, [r10, #48]	; 0x30
    10d8:	e5974008 	ldr	r4, [r7, #8]
    10dc:	e1530002 	cmp	r3, r2
    10e0:	95943004 	ldrls	r3, [r4, #4]
    10e4:	e59f2330 	ldr	r2, [pc, #816]	; 141c <_malloc_r+0x724>
    10e8:	85941004 	ldrhi	r1, [r4, #4]
    10ec:	85823030 	strhi	r3, [r2, #48]	; 0x30
    10f0:	93c33003 	bicls	r3, r3, #3
    10f4:	83c13003 	bichi	r3, r1, #3
    10f8:	e1550003 	cmp	r5, r3
    10fc:	e0653003 	rsb	r3, r5, r3
    1100:	8a000001 	bhi	110c <_malloc_r+0x414>
    1104:	e353000f 	cmp	r3, #15
    1108:	ca000003 	bgt	111c <_malloc_r+0x424>
    110c:	e1a00006 	mov	r0, r6
    1110:	eb000192 	bl	1760 <__malloc_unlock>
    1114:	e3a04000 	mov	r4, #0
    1118:	eaffff1d 	b	d94 <_malloc_r+0x9c>
    111c:	e3852001 	orr	r2, r5, #1
    1120:	e3833001 	orr	r3, r3, #1
    1124:	e0845005 	add	r5, r4, r5
    1128:	e5842004 	str	r2, [r4, #4]
    112c:	e1a00006 	mov	r0, r6
    1130:	e5875008 	str	r5, [r7, #8]
    1134:	e5853004 	str	r3, [r5, #4]
    1138:	eb000188 	bl	1760 <__malloc_unlock>
    113c:	e2844008 	add	r4, r4, #8
    1140:	e1a00004 	mov	r0, r4
    1144:	e28dd00c 	add	sp, sp, #12
    1148:	e8bd4ff0 	pop	{r4, r5, r6, r7, r8, r9, r10, r11, lr}
    114c:	e12fff1e 	bx	lr
    1150:	e0842002 	add	r2, r4, r2
    1154:	e592c004 	ldr	r12, [r2, #4]
    1158:	e2841008 	add	r1, r4, #8
    115c:	e891000a 	ldm	r1, {r1, r3}
    1160:	e38cc001 	orr	r12, r12, #1
    1164:	e581300c 	str	r3, [r1, #12]
    1168:	e1a00006 	mov	r0, r6
    116c:	e5831008 	str	r1, [r3, #8]
    1170:	e582c004 	str	r12, [r2, #4]
    1174:	eb000179 	bl	1760 <__malloc_unlock>
    1178:	e2844008 	add	r4, r4, #8
    117c:	e1a00004 	mov	r0, r4
    1180:	e28dd00c 	add	sp, sp, #12
    1184:	e8bd4ff0 	pop	{r4, r5, r6, r7, r8, r9, r10, r11, lr}
    1188:	e12fff1e 	bx	lr
    118c:	e35e0014 	cmp	lr, #20
    1190:	928ee05b 	addls	lr, lr, #91	; 0x5b
    1194:	91a0108e 	lslls	r1, lr, #1
    1198:	9affff05 	bls	db4 <_malloc_r+0xbc>
    119c:	e35e0054 	cmp	lr, #84	; 0x54
    11a0:	8a000067 	bhi	1344 <_malloc_r+0x64c>
    11a4:	e1a0e625 	lsr	lr, r5, #12
    11a8:	e28ee06e 	add	lr, lr, #110	; 0x6e
    11ac:	e1a0108e 	lsl	r1, lr, #1
    11b0:	eafffeff 	b	db4 <_malloc_r+0xbc>
    11b4:	e1a034a2 	lsr	r3, r2, #9
    11b8:	e3530004 	cmp	r3, #4
    11bc:	9a00003f 	bls	12c0 <_malloc_r+0x5c8>
    11c0:	e3530014 	cmp	r3, #20
    11c4:	9283105b 	addls	r1, r3, #91	; 0x5b
    11c8:	91a00081 	lslls	r0, r1, #1
    11cc:	9a000004 	bls	11e4 <_malloc_r+0x4ec>
    11d0:	e3530054 	cmp	r3, #84	; 0x54
    11d4:	8a000080 	bhi	13dc <_malloc_r+0x6e4>
    11d8:	e1a01622 	lsr	r1, r2, #12
    11dc:	e281106e 	add	r1, r1, #110	; 0x6e
    11e0:	e1a00081 	lsl	r0, r1, #1
    11e4:	e0870100 	add	r0, r7, r0, lsl #2
    11e8:	e5903008 	ldr	r3, [r0, #8]
    11ec:	e1530000 	cmp	r3, r0
    11f0:	e59fc220 	ldr	r12, [pc, #544]	; 1418 <_malloc_r+0x720>
    11f4:	0a00005d 	beq	1370 <_malloc_r+0x678>
    11f8:	e5931004 	ldr	r1, [r3, #4]
    11fc:	e3c11003 	bic	r1, r1, #3
    1200:	e1520001 	cmp	r2, r1
    1204:	2a000002 	bcs	1214 <_malloc_r+0x51c>
    1208:	e5933008 	ldr	r3, [r3, #8]
    120c:	e1500003 	cmp	r0, r3
    1210:	1afffff8 	bne	11f8 <_malloc_r+0x500>
    1214:	e593200c 	ldr	r2, [r3, #12]
    1218:	e5971004 	ldr	r1, [r7, #4]
    121c:	e584200c 	str	r2, [r4, #12]
    1220:	e5843008 	str	r3, [r4, #8]
    1224:	e5824008 	str	r4, [r2, #8]
    1228:	e583400c 	str	r4, [r3, #12]
    122c:	eaffff0f 	b	e70 <_malloc_r+0x178>
    1230:	e385c001 	orr	r12, r5, #1
    1234:	e3812001 	orr	r2, r1, #1
    1238:	e0845005 	add	r5, r4, r5
    123c:	e584c004 	str	r12, [r4, #4]
    1240:	e1a00006 	mov	r0, r6
    1244:	e5835014 	str	r5, [r3, #20]
    1248:	e5835010 	str	r5, [r3, #16]
    124c:	e585800c 	str	r8, [r5, #12]
    1250:	e9850104 	stmib	r5, {r2, r8}
    1254:	e7851001 	str	r1, [r5, r1]
    1258:	e2844008 	add	r4, r4, #8
    125c:	eb00013f 	bl	1760 <__malloc_unlock>
    1260:	eafffecb 	b	d94 <_malloc_r+0x9c>
    1264:	e2899001 	add	r9, r9, #1
    1268:	e3190003 	tst	r9, #3
    126c:	e28cc008 	add	r12, r12, #8
    1270:	1affff11 	bne	ebc <_malloc_r+0x1c4>
    1274:	ea00001f 	b	12f8 <_malloc_r+0x600>
    1278:	e2843008 	add	r3, r4, #8
    127c:	e5944014 	ldr	r4, [r4, #20]
    1280:	e1530004 	cmp	r3, r4
    1284:	028ee002 	addeq	lr, lr, #2
    1288:	0afffedb 	beq	dfc <_malloc_r+0x104>
    128c:	eafffeb3 	b	d60 <_malloc_r+0x68>
    1290:	e0831001 	add	r1, r3, r1
    1294:	e591c004 	ldr	r12, [r1, #4]
    1298:	e1a04003 	mov	r4, r3
    129c:	e5b42008 	ldr	r2, [r4, #8]!
    12a0:	e593300c 	ldr	r3, [r3, #12]
    12a4:	e38cc001 	orr	r12, r12, #1
    12a8:	e581c004 	str	r12, [r1, #4]
    12ac:	e1a00006 	mov	r0, r6
    12b0:	e582300c 	str	r3, [r2, #12]
    12b4:	e5832008 	str	r2, [r3, #8]
    12b8:	eb000128 	bl	1760 <__malloc_unlock>
    12bc:	eafffeb4 	b	d94 <_malloc_r+0x9c>
    12c0:	e1a01322 	lsr	r1, r2, #6
    12c4:	e2811038 	add	r1, r1, #56	; 0x38
    12c8:	e1a00081 	lsl	r0, r1, #1
    12cc:	eaffffc4 	b	11e4 <_malloc_r+0x4ec>
    12d0:	e1540007 	cmp	r4, r7
    12d4:	0affff46 	beq	ff4 <_malloc_r+0x2fc>
    12d8:	e5974008 	ldr	r4, [r7, #8]
    12dc:	e5943004 	ldr	r3, [r4, #4]
    12e0:	e3c33003 	bic	r3, r3, #3
    12e4:	eaffff83 	b	10f8 <_malloc_r+0x400>
    12e8:	e5944000 	ldr	r4, [r4]
    12ec:	e1540003 	cmp	r4, r3
    12f0:	e24ee001 	sub	lr, lr, #1
    12f4:	1a000045 	bne	1410 <_malloc_r+0x718>
    12f8:	e31e0003 	tst	lr, #3
    12fc:	e2443008 	sub	r3, r4, #8
    1300:	1afffff8 	bne	12e8 <_malloc_r+0x5f0>
    1304:	e5973004 	ldr	r3, [r7, #4]
    1308:	e1c33000 	bic	r3, r3, r0
    130c:	e5873004 	str	r3, [r7, #4]
    1310:	e1a00080 	lsl	r0, r0, #1
    1314:	e1500003 	cmp	r0, r3
    1318:	8affff18 	bhi	f80 <_malloc_r+0x288>
    131c:	e3500000 	cmp	r0, #0
    1320:	0affff16 	beq	f80 <_malloc_r+0x288>
    1324:	e1130000 	tst	r3, r0
    1328:	e1a0e009 	mov	lr, r9
    132c:	1afffedf 	bne	eb0 <_malloc_r+0x1b8>
    1330:	e1a00080 	lsl	r0, r0, #1
    1334:	e1130000 	tst	r3, r0
    1338:	e28ee004 	add	lr, lr, #4
    133c:	0afffffb 	beq	1330 <_malloc_r+0x638>
    1340:	eafffeda 	b	eb0 <_malloc_r+0x1b8>
    1344:	e35e0f55 	cmp	lr, #340	; 0x154
    1348:	8a00000f 	bhi	138c <_malloc_r+0x694>
    134c:	e1a0e7a5 	lsr	lr, r5, #15
    1350:	e28ee077 	add	lr, lr, #119	; 0x77
    1354:	e1a0108e 	lsl	r1, lr, #1
    1358:	eafffe95 	b	db4 <_malloc_r+0xbc>
    135c:	e3a03001 	mov	r3, #1
    1360:	e5883004 	str	r3, [r8, #4]
    1364:	e1a04008 	mov	r4, r8
    1368:	e3a03000 	mov	r3, #0
    136c:	eaffff61 	b	10f8 <_malloc_r+0x400>
    1370:	e59c2004 	ldr	r2, [r12, #4]
    1374:	e1a01141 	asr	r1, r1, #2
    1378:	e3a00001 	mov	r0, #1
    137c:	e1821110 	orr	r1, r2, r0, lsl r1
    1380:	e1a02003 	mov	r2, r3
    1384:	e58c1004 	str	r1, [r12, #4]
    1388:	eaffffa3 	b	121c <_malloc_r+0x524>
    138c:	e59f308c 	ldr	r3, [pc, #140]	; 1420 <_malloc_r+0x728>
    1390:	e15e0003 	cmp	lr, r3
    1394:	91a0e925 	lsrls	lr, r5, #18
    1398:	928ee07c 	addls	lr, lr, #124	; 0x7c
    139c:	91a0108e 	lslls	r1, lr, #1
    13a0:	83a010fc 	movhi	r1, #252	; 0xfc
    13a4:	83a0e07e 	movhi	lr, #126	; 0x7e
    13a8:	eafffe81 	b	db4 <_malloc_r+0xbc>
    13ac:	e1b01a02 	lsls	r1, r2, #20
    13b0:	1affff14 	bne	1008 <_malloc_r+0x310>
    13b4:	e08b1009 	add	r1, r11, r9
    13b8:	e5972008 	ldr	r2, [r7, #8]
    13bc:	e3811001 	orr	r1, r1, #1
    13c0:	e5821004 	str	r1, [r2, #4]
    13c4:	eaffff3e 	b	10c4 <_malloc_r+0x3cc>
    13c8:	e2841008 	add	r1, r4, #8
    13cc:	e1a00006 	mov	r0, r6
    13d0:	eb000531 	bl	289c <_free_r>
    13d4:	e59b3004 	ldr	r3, [r11, #4]
    13d8:	eaffff39 	b	10c4 <_malloc_r+0x3cc>
    13dc:	e3530f55 	cmp	r3, #340	; 0x154
    13e0:	91a017a2 	lsrls	r1, r2, #15
    13e4:	92811077 	addls	r1, r1, #119	; 0x77
    13e8:	91a00081 	lslls	r0, r1, #1
    13ec:	9affff7c 	bls	11e4 <_malloc_r+0x4ec>
    13f0:	e59f1028 	ldr	r1, [pc, #40]	; 1420 <_malloc_r+0x728>
    13f4:	e1530001 	cmp	r3, r1
    13f8:	91a01922 	lsrls	r1, r2, #18
    13fc:	9281107c 	addls	r1, r1, #124	; 0x7c
    1400:	91a00081 	lslls	r0, r1, #1
    1404:	83a000fc 	movhi	r0, #252	; 0xfc
    1408:	83a0107e 	movhi	r1, #126	; 0x7e
    140c:	eaffff74 	b	11e4 <_malloc_r+0x4ec>
    1410:	e5973004 	ldr	r3, [r7, #4]
    1414:	eaffffbd 	b	1310 <_malloc_r+0x618>
    1418:	00004158 	.word	0x00004158
    141c:	0000458c 	.word	0x0000458c
    1420:	00000554 	.word	0x00000554

00001424 <memchr>:
    1424:	e3100003 	tst	r0, #3
    1428:	e92d0070 	push	{r4, r5, r6}
    142c:	e20110ff 	and	r1, r1, #255	; 0xff
    1430:	0a00003a 	beq	1520 <memchr+0xfc>
    1434:	e3520000 	cmp	r2, #0
    1438:	e242c001 	sub	r12, r2, #1
    143c:	0a000021 	beq	14c8 <memchr+0xa4>
    1440:	e5d03000 	ldrb	r3, [r0]
    1444:	e1530001 	cmp	r3, r1
    1448:	0a00001f 	beq	14cc <memchr+0xa8>
    144c:	e2803001 	add	r3, r0, #1
    1450:	ea000006 	b	1470 <memchr+0x4c>
    1454:	e35c0000 	cmp	r12, #0
    1458:	0a00001a 	beq	14c8 <memchr+0xa4>
    145c:	e5d02000 	ldrb	r2, [r0]
    1460:	e1520001 	cmp	r2, r1
    1464:	e2833001 	add	r3, r3, #1
    1468:	e24cc001 	sub	r12, r12, #1
    146c:	0a000016 	beq	14cc <memchr+0xa8>
    1470:	e3130003 	tst	r3, #3
    1474:	e1a00003 	mov	r0, r3
    1478:	1afffff5 	bne	1454 <memchr+0x30>
    147c:	e35c0003 	cmp	r12, #3
    1480:	8a000013 	bhi	14d4 <memchr+0xb0>
    1484:	e35c0000 	cmp	r12, #0
    1488:	e24c4001 	sub	r4, r12, #1
    148c:	0a000025 	beq	1528 <memchr+0x104>
    1490:	e5d03000 	ldrb	r3, [r0]
    1494:	e1530001 	cmp	r3, r1
    1498:	0a00000b 	beq	14cc <memchr+0xa8>
    149c:	e2802001 	add	r2, r0, #1
    14a0:	e3a03000 	mov	r3, #0
    14a4:	ea000004 	b	14bc <memchr+0x98>
    14a8:	e5d0c000 	ldrb	r12, [r0]
    14ac:	e15c0001 	cmp	r12, r1
    14b0:	e2822001 	add	r2, r2, #1
    14b4:	e2833001 	add	r3, r3, #1
    14b8:	0a000003 	beq	14cc <memchr+0xa8>
    14bc:	e1530004 	cmp	r3, r4
    14c0:	e1a00002 	mov	r0, r2
    14c4:	1afffff7 	bne	14a8 <memchr+0x84>
    14c8:	e3a00000 	mov	r0, #0
    14cc:	e8bd0070 	pop	{r4, r5, r6}
    14d0:	e12fff1e 	bx	lr
    14d4:	e1816401 	orr	r6, r1, r1, lsl #8
    14d8:	e1a03000 	mov	r3, r0
    14dc:	e1866806 	orr	r6, r6, r6, lsl #16
    14e0:	e5935000 	ldr	r5, [r3]
    14e4:	e59f4044 	ldr	r4, [pc, #68]	; 1530 <memchr+0x10c>
    14e8:	e0265005 	eor	r5, r6, r5
    14ec:	e0854004 	add	r4, r5, r4
    14f0:	e59f203c 	ldr	r2, [pc, #60]	; 1534 <memchr+0x110>
    14f4:	e1c44005 	bic	r4, r4, r5
    14f8:	e0042002 	and	r2, r4, r2
    14fc:	e3520000 	cmp	r2, #0
    1500:	e1a00003 	mov	r0, r3
    1504:	e2833004 	add	r3, r3, #4
    1508:	1affffdd 	bne	1484 <memchr+0x60>
    150c:	e24cc004 	sub	r12, r12, #4
    1510:	e35c0003 	cmp	r12, #3
    1514:	e1a00003 	mov	r0, r3
    1518:	8afffff0 	bhi	14e0 <memchr+0xbc>
    151c:	eaffffd8 	b	1484 <memchr+0x60>
    1520:	e1a0c002 	mov	r12, r2
    1524:	eaffffd4 	b	147c <memchr+0x58>
    1528:	e1a0000c 	mov	r0, r12
    152c:	eaffffe6 	b	14cc <memchr+0xa8>
    1530:	fefefeff 	.word	0xfefefeff
    1534:	80808080 	.word	0x80808080

00001538 <memcpy>:
    1538:	e352000f 	cmp	r2, #15
    153c:	e92d00f0 	push	{r4, r5, r6, r7}
    1540:	9a00002a 	bls	15f0 <memcpy+0xb8>
    1544:	e1803001 	orr	r3, r0, r1
    1548:	e3130003 	tst	r3, #3
    154c:	1a000031 	bne	1618 <memcpy+0xe0>
    1550:	e2426010 	sub	r6, r2, #16
    1554:	e1a06226 	lsr	r6, r6, #4
    1558:	e0805206 	add	r5, r0, r6, lsl #4
    155c:	e2855010 	add	r5, r5, #16
    1560:	e1a0c001 	mov	r12, r1
    1564:	e1a03000 	mov	r3, r0
    1568:	e59c4000 	ldr	r4, [r12]
    156c:	e5834000 	str	r4, [r3]
    1570:	e59c4004 	ldr	r4, [r12, #4]
    1574:	e5834004 	str	r4, [r3, #4]
    1578:	e59c4008 	ldr	r4, [r12, #8]
    157c:	e5834008 	str	r4, [r3, #8]
    1580:	e59c400c 	ldr	r4, [r12, #12]
    1584:	e2833010 	add	r3, r3, #16
    1588:	e5034004 	str	r4, [r3, #-4]
    158c:	e1530005 	cmp	r3, r5
    1590:	e28cc010 	add	r12, r12, #16
    1594:	1afffff3 	bne	1568 <memcpy+0x30>
    1598:	e2863001 	add	r3, r6, #1
    159c:	e202700f 	and	r7, r2, #15
    15a0:	e1a03203 	lsl	r3, r3, #4
    15a4:	e3570003 	cmp	r7, #3
    15a8:	e0811003 	add	r1, r1, r3
    15ac:	e0803003 	add	r3, r0, r3
    15b0:	9a00001a 	bls	1620 <memcpy+0xe8>
    15b4:	e1a05001 	mov	r5, r1
    15b8:	e1a04003 	mov	r4, r3
    15bc:	e1a0c007 	mov	r12, r7
    15c0:	e24cc004 	sub	r12, r12, #4
    15c4:	e4956004 	ldr	r6, [r5], #4
    15c8:	e35c0003 	cmp	r12, #3
    15cc:	e4846004 	str	r6, [r4], #4
    15d0:	8afffffa 	bhi	15c0 <memcpy+0x88>
    15d4:	e247c004 	sub	r12, r7, #4
    15d8:	e3ccc003 	bic	r12, r12, #3
    15dc:	e28cc004 	add	r12, r12, #4
    15e0:	e083300c 	add	r3, r3, r12
    15e4:	e081100c 	add	r1, r1, r12
    15e8:	e2022003 	and	r2, r2, #3
    15ec:	ea000000 	b	15f4 <memcpy+0xbc>
    15f0:	e1a03000 	mov	r3, r0
    15f4:	e3520000 	cmp	r2, #0
    15f8:	0a000004 	beq	1610 <memcpy+0xd8>
    15fc:	e0812002 	add	r2, r1, r2
    1600:	e4d1c001 	ldrb	r12, [r1], #1
    1604:	e1510002 	cmp	r1, r2
    1608:	e4c3c001 	strb	r12, [r3], #1
    160c:	1afffffb 	bne	1600 <memcpy+0xc8>
    1610:	e8bd00f0 	pop	{r4, r5, r6, r7}
    1614:	e12fff1e 	bx	lr
    1618:	e1a03000 	mov	r3, r0
    161c:	eafffff6 	b	15fc <memcpy+0xc4>
    1620:	e1a02007 	mov	r2, r7
    1624:	eafffff2 	b	15f4 <memcpy+0xbc>

00001628 <memmove>:
    1628:	e1500001 	cmp	r0, r1
    162c:	e92d00f0 	push	{r4, r5, r6, r7}
    1630:	9a00000e 	bls	1670 <memmove+0x48>
    1634:	e081c002 	add	r12, r1, r2
    1638:	e150000c 	cmp	r0, r12
    163c:	2a00000b 	bcs	1670 <memmove+0x48>
    1640:	e3520000 	cmp	r2, #0
    1644:	e0803002 	add	r3, r0, r2
    1648:	e2422001 	sub	r2, r2, #1
    164c:	0a000005 	beq	1668 <memmove+0x40>
    1650:	e1a0100c 	mov	r1, r12
    1654:	e2422001 	sub	r2, r2, #1
    1658:	e571c001 	ldrb	r12, [r1, #-1]!
    165c:	e3720001 	cmn	r2, #1
    1660:	e563c001 	strb	r12, [r3, #-1]!
    1664:	1afffffa 	bne	1654 <memmove+0x2c>
    1668:	e8bd00f0 	pop	{r4, r5, r6, r7}
    166c:	e12fff1e 	bx	lr
    1670:	e352000f 	cmp	r2, #15
    1674:	8a000009 	bhi	16a0 <memmove+0x78>
    1678:	e1a03000 	mov	r3, r0
    167c:	e3520000 	cmp	r2, #0
    1680:	0afffff8 	beq	1668 <memmove+0x40>
    1684:	e0832002 	add	r2, r3, r2
    1688:	e4d1c001 	ldrb	r12, [r1], #1
    168c:	e4c3c001 	strb	r12, [r3], #1
    1690:	e1530002 	cmp	r3, r2
    1694:	1afffffb 	bne	1688 <memmove+0x60>
    1698:	e8bd00f0 	pop	{r4, r5, r6, r7}
    169c:	e12fff1e 	bx	lr
    16a0:	e1803001 	orr	r3, r0, r1
    16a4:	e3130003 	tst	r3, #3
    16a8:	1a000027 	bne	174c <memmove+0x124>
    16ac:	e2426010 	sub	r6, r2, #16
    16b0:	e1a06226 	lsr	r6, r6, #4
    16b4:	e0805206 	add	r5, r0, r6, lsl #4
    16b8:	e2855010 	add	r5, r5, #16
    16bc:	e1a0c001 	mov	r12, r1
    16c0:	e1a03000 	mov	r3, r0
    16c4:	e59c4000 	ldr	r4, [r12]
    16c8:	e5834000 	str	r4, [r3]
    16cc:	e59c4004 	ldr	r4, [r12, #4]
    16d0:	e5834004 	str	r4, [r3, #4]
    16d4:	e59c4008 	ldr	r4, [r12, #8]
    16d8:	e5834008 	str	r4, [r3, #8]
    16dc:	e59c400c 	ldr	r4, [r12, #12]
    16e0:	e2833010 	add	r3, r3, #16
    16e4:	e5034004 	str	r4, [r3, #-4]
    16e8:	e1530005 	cmp	r3, r5
    16ec:	e28cc010 	add	r12, r12, #16
    16f0:	1afffff3 	bne	16c4 <memmove+0x9c>
    16f4:	e2863001 	add	r3, r6, #1
    16f8:	e202700f 	and	r7, r2, #15
    16fc:	e1a03203 	lsl	r3, r3, #4
    1700:	e3570003 	cmp	r7, #3
    1704:	e0811003 	add	r1, r1, r3
    1708:	e0803003 	add	r3, r0, r3
    170c:	9a000010 	bls	1754 <memmove+0x12c>
    1710:	e1a05001 	mov	r5, r1
    1714:	e1a04003 	mov	r4, r3
    1718:	e1a0c007 	mov	r12, r7
    171c:	e24cc004 	sub	r12, r12, #4
    1720:	e4956004 	ldr	r6, [r5], #4
    1724:	e35c0003 	cmp	r12, #3
    1728:	e4846004 	str	r6, [r4], #4
    172c:	8afffffa 	bhi	171c <memmove+0xf4>
    1730:	e247c004 	sub	r12, r7, #4
    1734:	e3ccc003 	bic	r12, r12, #3
    1738:	e28cc004 	add	r12, r12, #4
    173c:	e083300c 	add	r3, r3, r12
    1740:	e081100c 	add	r1, r1, r12
    1744:	e2022003 	and	r2, r2, #3
    1748:	eaffffcb 	b	167c <memmove+0x54>
    174c:	e1a03000 	mov	r3, r0
    1750:	eaffffcb 	b	1684 <memmove+0x5c>
    1754:	e1a02007 	mov	r2, r7
    1758:	eaffffc7 	b	167c <memmove+0x54>

0000175c <__malloc_lock>:
    175c:	e12fff1e 	bx	lr

00001760 <__malloc_unlock>:
    1760:	e12fff1e 	bx	lr

00001764 <_putc_r>:
    1764:	e92d4070 	push	{r4, r5, r6, lr}
    1768:	e2506000 	subs	r6, r0, #0
    176c:	e1a05001 	mov	r5, r1
    1770:	e1a04002 	mov	r4, r2
    1774:	0a000002 	beq	1784 <_putc_r+0x20>
    1778:	e5963038 	ldr	r3, [r6, #56]	; 0x38
    177c:	e3530000 	cmp	r3, #0
    1780:	0a000019 	beq	17ec <_putc_r+0x88>
    1784:	e5943008 	ldr	r3, [r4, #8]
    1788:	e2433001 	sub	r3, r3, #1
    178c:	e3530000 	cmp	r3, #0
    1790:	e5843008 	str	r3, [r4, #8]
    1794:	ba000007 	blt	17b8 <_putc_r+0x54>
    1798:	e5943000 	ldr	r3, [r4]
    179c:	e5c35000 	strb	r5, [r3]
    17a0:	e5943000 	ldr	r3, [r4]
    17a4:	e2832001 	add	r2, r3, #1
    17a8:	e5842000 	str	r2, [r4]
    17ac:	e5d30000 	ldrb	r0, [r3]
    17b0:	e8bd4070 	pop	{r4, r5, r6, lr}
    17b4:	e12fff1e 	bx	lr
    17b8:	e5942018 	ldr	r2, [r4, #24]
    17bc:	e1530002 	cmp	r3, r2
    17c0:	ba00000b 	blt	17f4 <_putc_r+0x90>
    17c4:	e5943000 	ldr	r3, [r4]
    17c8:	e5c35000 	strb	r5, [r3]
    17cc:	e5943000 	ldr	r3, [r4]
    17d0:	e5d31000 	ldrb	r1, [r3]
    17d4:	e351000a 	cmp	r1, #10
    17d8:	1afffff1 	bne	17a4 <_putc_r+0x40>
    17dc:	e1a00006 	mov	r0, r6
    17e0:	e1a02004 	mov	r2, r4
    17e4:	eb0001bc 	bl	1edc <__swbuf_r>
    17e8:	eafffff0 	b	17b0 <_putc_r+0x4c>
    17ec:	eb00033c 	bl	24e4 <__sinit>
    17f0:	eaffffe3 	b	1784 <_putc_r+0x20>
    17f4:	e1a00006 	mov	r0, r6
    17f8:	e1a01005 	mov	r1, r5
    17fc:	e1a02004 	mov	r2, r4
    1800:	eb0001b5 	bl	1edc <__swbuf_r>
    1804:	eaffffe9 	b	17b0 <_putc_r+0x4c>

00001808 <putc>:
    1808:	e59f30a8 	ldr	r3, [pc, #168]	; 18b8 <putc+0xb0>
    180c:	e92d4070 	push	{r4, r5, r6, lr}
    1810:	e5935000 	ldr	r5, [r3]
    1814:	e3550000 	cmp	r5, #0
    1818:	e1a06000 	mov	r6, r0
    181c:	e1a04001 	mov	r4, r1
    1820:	0a000002 	beq	1830 <putc+0x28>
    1824:	e5953038 	ldr	r3, [r5, #56]	; 0x38
    1828:	e3530000 	cmp	r3, #0
    182c:	0a000019 	beq	1898 <putc+0x90>
    1830:	e5943008 	ldr	r3, [r4, #8]
    1834:	e2433001 	sub	r3, r3, #1
    1838:	e3530000 	cmp	r3, #0
    183c:	e5843008 	str	r3, [r4, #8]
    1840:	ba000007 	blt	1864 <putc+0x5c>
    1844:	e5943000 	ldr	r3, [r4]
    1848:	e5c36000 	strb	r6, [r3]
    184c:	e5943000 	ldr	r3, [r4]
    1850:	e2832001 	add	r2, r3, #1
    1854:	e5842000 	str	r2, [r4]
    1858:	e5d30000 	ldrb	r0, [r3]
    185c:	e8bd4070 	pop	{r4, r5, r6, lr}
    1860:	e12fff1e 	bx	lr
    1864:	e5942018 	ldr	r2, [r4, #24]
    1868:	e1530002 	cmp	r3, r2
    186c:	ba00000c 	blt	18a4 <putc+0x9c>
    1870:	e5943000 	ldr	r3, [r4]
    1874:	e5c36000 	strb	r6, [r3]
    1878:	e5943000 	ldr	r3, [r4]
    187c:	e5d31000 	ldrb	r1, [r3]
    1880:	e351000a 	cmp	r1, #10
    1884:	1afffff1 	bne	1850 <putc+0x48>
    1888:	e1a00005 	mov	r0, r5
    188c:	e1a02004 	mov	r2, r4
    1890:	eb000191 	bl	1edc <__swbuf_r>
    1894:	eafffff0 	b	185c <putc+0x54>
    1898:	e1a00005 	mov	r0, r5
    189c:	eb000310 	bl	24e4 <__sinit>
    18a0:	eaffffe2 	b	1830 <putc+0x28>
    18a4:	e1a00005 	mov	r0, r5
    18a8:	e1a01006 	mov	r1, r6
    18ac:	e1a02004 	mov	r2, r4
    18b0:	eb000189 	bl	1edc <__swbuf_r>
    18b4:	eaffffe8 	b	185c <putc+0x54>
    18b8:	00003d28 	.word	0x00003d28

000018bc <_realloc_r>:
    18bc:	e92d4ff0 	push	{r4, r5, r6, r7, r8, r9, r10, r11, lr}
    18c0:	e2514000 	subs	r4, r1, #0
    18c4:	e24dd00c 	sub	sp, sp, #12
    18c8:	e1a08002 	mov	r8, r2
    18cc:	e1a09000 	mov	r9, r0
    18d0:	0a0000d1 	beq	1c1c <_realloc_r+0x360>
    18d4:	ebffffa0 	bl	175c <__malloc_lock>
    18d8:	e288600b 	add	r6, r8, #11
    18dc:	e3560016 	cmp	r6, #22
    18e0:	83c66007 	bichi	r6, r6, #7
    18e4:	93a02010 	movls	r2, #16
    18e8:	81a00fa6 	lsrhi	r0, r6, #31
    18ec:	91a06002 	movls	r6, r2
    18f0:	93a00000 	movls	r0, #0
    18f4:	e5143004 	ldr	r3, [r4, #-4]
    18f8:	81a02006 	movhi	r2, r6
    18fc:	e1560008 	cmp	r6, r8
    1900:	33800001 	orrcc	r0, r0, #1
    1904:	e3500000 	cmp	r0, #0
    1908:	e3c35003 	bic	r5, r3, #3
    190c:	13a0300c 	movne	r3, #12
    1910:	e2447008 	sub	r7, r4, #8
    1914:	15893000 	strne	r3, [r9]
    1918:	13a00000 	movne	r0, #0
    191c:	1a000056 	bne	1a7c <_realloc_r+0x1c0>
    1920:	e1550002 	cmp	r5, r2
    1924:	aa000047 	bge	1a48 <_realloc_r+0x18c>
    1928:	e59fa4f4 	ldr	r10, [pc, #1268]	; 1e24 <_realloc_r+0x568>
    192c:	e59ac008 	ldr	r12, [r10, #8]
    1930:	e0871005 	add	r1, r7, r5
    1934:	e15c0001 	cmp	r12, r1
    1938:	0a0000bc 	beq	1c30 <_realloc_r+0x374>
    193c:	e591e004 	ldr	lr, [r1, #4]
    1940:	e3ceb001 	bic	r11, lr, #1
    1944:	e081b00b 	add	r11, r1, r11
    1948:	e59bb004 	ldr	r11, [r11, #4]
    194c:	e31b0001 	tst	r11, #1
    1950:	11a01000 	movne	r1, r0
    1954:	0a000058 	beq	1abc <_realloc_r+0x200>
    1958:	e3130001 	tst	r3, #1
    195c:	1a00008d 	bne	1b98 <_realloc_r+0x2dc>
    1960:	e514b008 	ldr	r11, [r4, #-8]
    1964:	e06bb007 	rsb	r11, r11, r7
    1968:	e59b3004 	ldr	r3, [r11, #4]
    196c:	e3510000 	cmp	r1, #0
    1970:	e3c33003 	bic	r3, r3, #3
    1974:	e0833005 	add	r3, r3, r5
    1978:	0a000059 	beq	1ae4 <_realloc_r+0x228>
    197c:	e151000c 	cmp	r1, r12
    1980:	e080c003 	add	r12, r0, r3
    1984:	0a0000de 	beq	1d04 <_realloc_r+0x448>
    1988:	e15c0002 	cmp	r12, r2
    198c:	ba000054 	blt	1ae4 <_realloc_r+0x228>
    1990:	e2812008 	add	r2, r1, #8
    1994:	e892000c 	ldm	r2, {r2, r3}
    1998:	e582300c 	str	r3, [r2, #12]
    199c:	e5832008 	str	r2, [r3, #8]
    19a0:	e1a0700b 	mov	r7, r11
    19a4:	e59b300c 	ldr	r3, [r11, #12]
    19a8:	e5b71008 	ldr	r1, [r7, #8]!
    19ac:	e2452004 	sub	r2, r5, #4
    19b0:	e3520024 	cmp	r2, #36	; 0x24
    19b4:	e581300c 	str	r3, [r1, #12]
    19b8:	e5831008 	str	r1, [r3, #8]
    19bc:	8a00010a 	bhi	1dec <_realloc_r+0x530>
    19c0:	e3520013 	cmp	r2, #19
    19c4:	91a03007 	movls	r3, r7
    19c8:	9a000014 	bls	1a20 <_realloc_r+0x164>
    19cc:	e5943000 	ldr	r3, [r4]
    19d0:	e58b3008 	str	r3, [r11, #8]
    19d4:	e5943004 	ldr	r3, [r4, #4]
    19d8:	e352001b 	cmp	r2, #27
    19dc:	e58b300c 	str	r3, [r11, #12]
    19e0:	92844008 	addls	r4, r4, #8
    19e4:	928b3010 	addls	r3, r11, #16
    19e8:	9a00000c 	bls	1a20 <_realloc_r+0x164>
    19ec:	e5943008 	ldr	r3, [r4, #8]
    19f0:	e58b3010 	str	r3, [r11, #16]
    19f4:	e594300c 	ldr	r3, [r4, #12]
    19f8:	e58b3014 	str	r3, [r11, #20]
    19fc:	e3520024 	cmp	r2, #36	; 0x24
    1a00:	05943010 	ldreq	r3, [r4, #16]
    1a04:	058b3018 	streq	r3, [r11, #24]
    1a08:	05942014 	ldreq	r2, [r4, #20]
    1a0c:	058b201c 	streq	r2, [r11, #28]
    1a10:	12844010 	addne	r4, r4, #16
    1a14:	128b3018 	addne	r3, r11, #24
    1a18:	028b3020 	addeq	r3, r11, #32
    1a1c:	02844018 	addeq	r4, r4, #24
    1a20:	e5942000 	ldr	r2, [r4]
    1a24:	e5832000 	str	r2, [r3]
    1a28:	e5942004 	ldr	r2, [r4, #4]
    1a2c:	e5832004 	str	r2, [r3, #4]
    1a30:	e5942008 	ldr	r2, [r4, #8]
    1a34:	e5832008 	str	r2, [r3, #8]
    1a38:	e59b3004 	ldr	r3, [r11, #4]
    1a3c:	e1a04007 	mov	r4, r7
    1a40:	e1a0500c 	mov	r5, r12
    1a44:	e1a0700b 	mov	r7, r11
    1a48:	e0662005 	rsb	r2, r6, r5
    1a4c:	e352000f 	cmp	r2, #15
    1a50:	e2033001 	and	r3, r3, #1
    1a54:	8a00000b 	bhi	1a88 <_realloc_r+0x1cc>
    1a58:	e1833005 	orr	r3, r3, r5
    1a5c:	e5873004 	str	r3, [r7, #4]
    1a60:	e0875005 	add	r5, r7, r5
    1a64:	e5953004 	ldr	r3, [r5, #4]
    1a68:	e3833001 	orr	r3, r3, #1
    1a6c:	e5853004 	str	r3, [r5, #4]
    1a70:	e1a00009 	mov	r0, r9
    1a74:	ebffff39 	bl	1760 <__malloc_unlock>
    1a78:	e1a00004 	mov	r0, r4
    1a7c:	e28dd00c 	add	sp, sp, #12
    1a80:	e8bd4ff0 	pop	{r4, r5, r6, r7, r8, r9, r10, r11, lr}
    1a84:	e12fff1e 	bx	lr
    1a88:	e0871006 	add	r1, r7, r6
    1a8c:	e1833006 	orr	r3, r3, r6
    1a90:	e3820001 	orr	r0, r2, #1
    1a94:	e5873004 	str	r3, [r7, #4]
    1a98:	e5810004 	str	r0, [r1, #4]
    1a9c:	e0812002 	add	r2, r1, r2
    1aa0:	e5923004 	ldr	r3, [r2, #4]
    1aa4:	e3833001 	orr	r3, r3, #1
    1aa8:	e2811008 	add	r1, r1, #8
    1aac:	e5823004 	str	r3, [r2, #4]
    1ab0:	e1a00009 	mov	r0, r9
    1ab4:	eb000378 	bl	289c <_free_r>
    1ab8:	eaffffec 	b	1a70 <_realloc_r+0x1b4>
    1abc:	e3ce0003 	bic	r0, lr, #3
    1ac0:	e080e005 	add	lr, r0, r5
    1ac4:	e15e0002 	cmp	lr, r2
    1ac8:	baffffa2 	blt	1958 <_realloc_r+0x9c>
    1acc:	e2811008 	add	r1, r1, #8
    1ad0:	e8910006 	ldm	r1, {r1, r2}
    1ad4:	e1a0500e 	mov	r5, lr
    1ad8:	e581200c 	str	r2, [r1, #12]
    1adc:	e5821008 	str	r1, [r2, #8]
    1ae0:	eaffffd8 	b	1a48 <_realloc_r+0x18c>
    1ae4:	e1530002 	cmp	r3, r2
    1ae8:	ba00002a 	blt	1b98 <_realloc_r+0x2dc>
    1aec:	e1a0700b 	mov	r7, r11
    1af0:	e5b70008 	ldr	r0, [r7, #8]!
    1af4:	e59b100c 	ldr	r1, [r11, #12]
    1af8:	e2452004 	sub	r2, r5, #4
    1afc:	e3520024 	cmp	r2, #36	; 0x24
    1b00:	e580100c 	str	r1, [r0, #12]
    1b04:	e5810008 	str	r0, [r1, #8]
    1b08:	8a000072 	bhi	1cd8 <_realloc_r+0x41c>
    1b0c:	e3520013 	cmp	r2, #19
    1b10:	91a02007 	movls	r2, r7
    1b14:	9a000014 	bls	1b6c <_realloc_r+0x2b0>
    1b18:	e5941000 	ldr	r1, [r4]
    1b1c:	e58b1008 	str	r1, [r11, #8]
    1b20:	e5941004 	ldr	r1, [r4, #4]
    1b24:	e352001b 	cmp	r2, #27
    1b28:	e58b100c 	str	r1, [r11, #12]
    1b2c:	92844008 	addls	r4, r4, #8
    1b30:	928b2010 	addls	r2, r11, #16
    1b34:	9a00000c 	bls	1b6c <_realloc_r+0x2b0>
    1b38:	e5941008 	ldr	r1, [r4, #8]
    1b3c:	e58b1010 	str	r1, [r11, #16]
    1b40:	e594100c 	ldr	r1, [r4, #12]
    1b44:	e58b1014 	str	r1, [r11, #20]
    1b48:	e3520024 	cmp	r2, #36	; 0x24
    1b4c:	05942010 	ldreq	r2, [r4, #16]
    1b50:	058b2018 	streq	r2, [r11, #24]
    1b54:	05941014 	ldreq	r1, [r4, #20]
    1b58:	058b101c 	streq	r1, [r11, #28]
    1b5c:	12844010 	addne	r4, r4, #16
    1b60:	128b2018 	addne	r2, r11, #24
    1b64:	028b2020 	addeq	r2, r11, #32
    1b68:	02844018 	addeq	r4, r4, #24
    1b6c:	e5941000 	ldr	r1, [r4]
    1b70:	e5821000 	str	r1, [r2]
    1b74:	e5941004 	ldr	r1, [r4, #4]
    1b78:	e5821004 	str	r1, [r2, #4]
    1b7c:	e5941008 	ldr	r1, [r4, #8]
    1b80:	e5821008 	str	r1, [r2, #8]
    1b84:	e1a04007 	mov	r4, r7
    1b88:	e1a05003 	mov	r5, r3
    1b8c:	e1a0700b 	mov	r7, r11
    1b90:	e59b3004 	ldr	r3, [r11, #4]
    1b94:	eaffffab 	b	1a48 <_realloc_r+0x18c>
    1b98:	e1a01008 	mov	r1, r8
    1b9c:	e1a00009 	mov	r0, r9
    1ba0:	ebfffc54 	bl	cf8 <_malloc_r>
    1ba4:	e2508000 	subs	r8, r0, #0
    1ba8:	0a000015 	beq	1c04 <_realloc_r+0x348>
    1bac:	e5143004 	ldr	r3, [r4, #-4]
    1bb0:	e3c32001 	bic	r2, r3, #1
    1bb4:	e0872002 	add	r2, r7, r2
    1bb8:	e2481008 	sub	r1, r8, #8
    1bbc:	e1510002 	cmp	r1, r2
    1bc0:	0a000085 	beq	1ddc <_realloc_r+0x520>
    1bc4:	e2452004 	sub	r2, r5, #4
    1bc8:	e3520024 	cmp	r2, #36	; 0x24
    1bcc:	8a000049 	bhi	1cf8 <_realloc_r+0x43c>
    1bd0:	e3520013 	cmp	r2, #19
    1bd4:	91a03008 	movls	r3, r8
    1bd8:	91a02004 	movls	r2, r4
    1bdc:	8a000027 	bhi	1c80 <_realloc_r+0x3c4>
    1be0:	e5921000 	ldr	r1, [r2]
    1be4:	e5831000 	str	r1, [r3]
    1be8:	e5921004 	ldr	r1, [r2, #4]
    1bec:	e5831004 	str	r1, [r3, #4]
    1bf0:	e5922008 	ldr	r2, [r2, #8]
    1bf4:	e5832008 	str	r2, [r3, #8]
    1bf8:	e1a01004 	mov	r1, r4
    1bfc:	e1a00009 	mov	r0, r9
    1c00:	eb000325 	bl	289c <_free_r>
    1c04:	e1a00009 	mov	r0, r9
    1c08:	ebfffed4 	bl	1760 <__malloc_unlock>
    1c0c:	e1a00008 	mov	r0, r8
    1c10:	e28dd00c 	add	sp, sp, #12
    1c14:	e8bd4ff0 	pop	{r4, r5, r6, r7, r8, r9, r10, r11, lr}
    1c18:	e12fff1e 	bx	lr
    1c1c:	e1a01002 	mov	r1, r2
    1c20:	ebfffc34 	bl	cf8 <_malloc_r>
    1c24:	e28dd00c 	add	sp, sp, #12
    1c28:	e8bd4ff0 	pop	{r4, r5, r6, r7, r8, r9, r10, r11, lr}
    1c2c:	e12fff1e 	bx	lr
    1c30:	e59c0004 	ldr	r0, [r12, #4]
    1c34:	e3c00003 	bic	r0, r0, #3
    1c38:	e0801005 	add	r1, r0, r5
    1c3c:	e286e010 	add	lr, r6, #16
    1c40:	e151000e 	cmp	r1, lr
    1c44:	b1a0100c 	movlt	r1, r12
    1c48:	baffff42 	blt	1958 <_realloc_r+0x9c>
    1c4c:	e0663001 	rsb	r3, r6, r1
    1c50:	e0877006 	add	r7, r7, r6
    1c54:	e3833001 	orr	r3, r3, #1
    1c58:	e58a7008 	str	r7, [r10, #8]
    1c5c:	e5873004 	str	r3, [r7, #4]
    1c60:	e5143004 	ldr	r3, [r4, #-4]
    1c64:	e2033001 	and	r3, r3, #1
    1c68:	e1866003 	orr	r6, r6, r3
    1c6c:	e1a00009 	mov	r0, r9
    1c70:	e5046004 	str	r6, [r4, #-4]
    1c74:	ebfffeb9 	bl	1760 <__malloc_unlock>
    1c78:	e1a00004 	mov	r0, r4
    1c7c:	eaffff7e 	b	1a7c <_realloc_r+0x1c0>
    1c80:	e5943000 	ldr	r3, [r4]
    1c84:	e5883000 	str	r3, [r8]
    1c88:	e5943004 	ldr	r3, [r4, #4]
    1c8c:	e352001b 	cmp	r2, #27
    1c90:	e5883004 	str	r3, [r8, #4]
    1c94:	92842008 	addls	r2, r4, #8
    1c98:	92883008 	addls	r3, r8, #8
    1c9c:	9affffcf 	bls	1be0 <_realloc_r+0x324>
    1ca0:	e5943008 	ldr	r3, [r4, #8]
    1ca4:	e5883008 	str	r3, [r8, #8]
    1ca8:	e594300c 	ldr	r3, [r4, #12]
    1cac:	e588300c 	str	r3, [r8, #12]
    1cb0:	e3520024 	cmp	r2, #36	; 0x24
    1cb4:	05943010 	ldreq	r3, [r4, #16]
    1cb8:	05883010 	streq	r3, [r8, #16]
    1cbc:	05942014 	ldreq	r2, [r4, #20]
    1cc0:	12883010 	addne	r3, r8, #16
    1cc4:	05882014 	streq	r2, [r8, #20]
    1cc8:	12842010 	addne	r2, r4, #16
    1ccc:	02883018 	addeq	r3, r8, #24
    1cd0:	02842018 	addeq	r2, r4, #24
    1cd4:	eaffffc1 	b	1be0 <_realloc_r+0x324>
    1cd8:	e1a01004 	mov	r1, r4
    1cdc:	e1a00007 	mov	r0, r7
    1ce0:	e1a05003 	mov	r5, r3
    1ce4:	e1a04007 	mov	r4, r7
    1ce8:	ebfffe4e 	bl	1628 <memmove>
    1cec:	e1a0700b 	mov	r7, r11
    1cf0:	e59b3004 	ldr	r3, [r11, #4]
    1cf4:	eaffff53 	b	1a48 <_realloc_r+0x18c>
    1cf8:	e1a01004 	mov	r1, r4
    1cfc:	ebfffe49 	bl	1628 <memmove>
    1d00:	eaffffbc 	b	1bf8 <_realloc_r+0x33c>
    1d04:	e2861010 	add	r1, r6, #16
    1d08:	e15c0001 	cmp	r12, r1
    1d0c:	baffff74 	blt	1ae4 <_realloc_r+0x228>
    1d10:	e1a0700b 	mov	r7, r11
    1d14:	e5b71008 	ldr	r1, [r7, #8]!
    1d18:	e59b300c 	ldr	r3, [r11, #12]
    1d1c:	e2452004 	sub	r2, r5, #4
    1d20:	e3520024 	cmp	r2, #36	; 0x24
    1d24:	e581300c 	str	r3, [r1, #12]
    1d28:	e5831008 	str	r1, [r3, #8]
    1d2c:	8a000036 	bhi	1e0c <_realloc_r+0x550>
    1d30:	e3520013 	cmp	r2, #19
    1d34:	91a03007 	movls	r3, r7
    1d38:	9a000014 	bls	1d90 <_realloc_r+0x4d4>
    1d3c:	e5943000 	ldr	r3, [r4]
    1d40:	e58b3008 	str	r3, [r11, #8]
    1d44:	e5943004 	ldr	r3, [r4, #4]
    1d48:	e352001b 	cmp	r2, #27
    1d4c:	e58b300c 	str	r3, [r11, #12]
    1d50:	92844008 	addls	r4, r4, #8
    1d54:	928b3010 	addls	r3, r11, #16
    1d58:	9a00000c 	bls	1d90 <_realloc_r+0x4d4>
    1d5c:	e5943008 	ldr	r3, [r4, #8]
    1d60:	e58b3010 	str	r3, [r11, #16]
    1d64:	e594300c 	ldr	r3, [r4, #12]
    1d68:	e58b3014 	str	r3, [r11, #20]
    1d6c:	e3520024 	cmp	r2, #36	; 0x24
    1d70:	05943010 	ldreq	r3, [r4, #16]
    1d74:	058b3018 	streq	r3, [r11, #24]
    1d78:	05942014 	ldreq	r2, [r4, #20]
    1d7c:	058b201c 	streq	r2, [r11, #28]
    1d80:	12844010 	addne	r4, r4, #16
    1d84:	128b3018 	addne	r3, r11, #24
    1d88:	028b3020 	addeq	r3, r11, #32
    1d8c:	02844018 	addeq	r4, r4, #24
    1d90:	e5942000 	ldr	r2, [r4]
    1d94:	e5832000 	str	r2, [r3]
    1d98:	e5942004 	ldr	r2, [r4, #4]
    1d9c:	e5832004 	str	r2, [r3, #4]
    1da0:	e5942008 	ldr	r2, [r4, #8]
    1da4:	e5832008 	str	r2, [r3, #8]
    1da8:	e066200c 	rsb	r2, r6, r12
    1dac:	e08b3006 	add	r3, r11, r6
    1db0:	e3822001 	orr	r2, r2, #1
    1db4:	e58a3008 	str	r3, [r10, #8]
    1db8:	e5832004 	str	r2, [r3, #4]
    1dbc:	e59b3004 	ldr	r3, [r11, #4]
    1dc0:	e2033001 	and	r3, r3, #1
    1dc4:	e1866003 	orr	r6, r6, r3
    1dc8:	e1a00009 	mov	r0, r9
    1dcc:	e58b6004 	str	r6, [r11, #4]
    1dd0:	ebfffe62 	bl	1760 <__malloc_unlock>
    1dd4:	e1a00007 	mov	r0, r7
    1dd8:	eaffff27 	b	1a7c <_realloc_r+0x1c0>
    1ddc:	e5182004 	ldr	r2, [r8, #-4]
    1de0:	e3c22003 	bic	r2, r2, #3
    1de4:	e0855002 	add	r5, r5, r2
    1de8:	eaffff16 	b	1a48 <_realloc_r+0x18c>
    1dec:	e1a01004 	mov	r1, r4
    1df0:	e1a00007 	mov	r0, r7
    1df4:	e1a0500c 	mov	r5, r12
    1df8:	e1a04007 	mov	r4, r7
    1dfc:	ebfffe09 	bl	1628 <memmove>
    1e00:	e1a0700b 	mov	r7, r11
    1e04:	e59b3004 	ldr	r3, [r11, #4]
    1e08:	eaffff0e 	b	1a48 <_realloc_r+0x18c>
    1e0c:	e1a01004 	mov	r1, r4
    1e10:	e1a00007 	mov	r0, r7
    1e14:	e58dc004 	str	r12, [sp, #4]
    1e18:	ebfffe02 	bl	1628 <memmove>
    1e1c:	e59dc004 	ldr	r12, [sp, #4]
    1e20:	eaffffe0 	b	1da8 <_realloc_r+0x4ec>
    1e24:	00004158 	.word	0x00004158

00001e28 <__srget_r>:
    1e28:	e92d4038 	push	{r3, r4, r5, lr}
    1e2c:	e2505000 	subs	r5, r0, #0
    1e30:	e1a04001 	mov	r4, r1
    1e34:	0a000002 	beq	1e44 <__srget_r+0x1c>
    1e38:	e5953038 	ldr	r3, [r5, #56]	; 0x38
    1e3c:	e3530000 	cmp	r3, #0
    1e40:	0a00000d 	beq	1e7c <__srget_r+0x54>
    1e44:	e1a01004 	mov	r1, r4
    1e48:	e1a00005 	mov	r0, r5
    1e4c:	eb000463 	bl	2fe0 <__srefill_r>
    1e50:	e3500000 	cmp	r0, #0
    1e54:	05943000 	ldreq	r3, [r4]
    1e58:	05941004 	ldreq	r1, [r4, #4]
    1e5c:	02832001 	addeq	r2, r3, #1
    1e60:	02411001 	subeq	r1, r1, #1
    1e64:	05841004 	streq	r1, [r4, #4]
    1e68:	05842000 	streq	r2, [r4]
    1e6c:	13e00000 	mvnne	r0, #0
    1e70:	05d30000 	ldrbeq	r0, [r3]
    1e74:	e8bd4038 	pop	{r3, r4, r5, lr}
    1e78:	e12fff1e 	bx	lr
    1e7c:	eb000198 	bl	24e4 <__sinit>
    1e80:	eaffffef 	b	1e44 <__srget_r+0x1c>

00001e84 <__srget>:
    1e84:	e59f3008 	ldr	r3, [pc, #8]	; 1e94 <__srget+0x10>
    1e88:	e1a01000 	mov	r1, r0
    1e8c:	e5930000 	ldr	r0, [r3]
    1e90:	eaffffe4 	b	1e28 <__srget_r>
    1e94:	00003d28 	.word	0x00003d28

00001e98 <_sbrk_r>:
    1e98:	e92d4038 	push	{r3, r4, r5, lr}
    1e9c:	e59f4034 	ldr	r4, [pc, #52]	; 1ed8 <_sbrk_r+0x40>
    1ea0:	e3a03000 	mov	r3, #0
    1ea4:	e1a05000 	mov	r5, r0
    1ea8:	e1a00001 	mov	r0, r1
    1eac:	e5843000 	str	r3, [r4]
    1eb0:	eb000651 	bl	37fc <_sbrk>
    1eb4:	e3700001 	cmn	r0, #1
    1eb8:	0a000001 	beq	1ec4 <_sbrk_r+0x2c>
    1ebc:	e8bd4038 	pop	{r3, r4, r5, lr}
    1ec0:	e12fff1e 	bx	lr
    1ec4:	e5943000 	ldr	r3, [r4]
    1ec8:	e3530000 	cmp	r3, #0
    1ecc:	15853000 	strne	r3, [r5]
    1ed0:	e8bd4038 	pop	{r3, r4, r5, lr}
    1ed4:	e12fff1e 	bx	lr
    1ed8:	000045c0 	.word	0x000045c0

00001edc <__swbuf_r>:
    1edc:	e92d4070 	push	{r4, r5, r6, lr}
    1ee0:	e2506000 	subs	r6, r0, #0
    1ee4:	e1a05001 	mov	r5, r1
    1ee8:	e1a04002 	mov	r4, r2
    1eec:	0a000002 	beq	1efc <__swbuf_r+0x20>
    1ef0:	e5963038 	ldr	r3, [r6, #56]	; 0x38
    1ef4:	e3530000 	cmp	r3, #0
    1ef8:	0a00003e 	beq	1ff8 <__swbuf_r+0x11c>
    1efc:	e1d420bc 	ldrh	r2, [r4, #12]
    1f00:	e5940018 	ldr	r0, [r4, #24]
    1f04:	e3120008 	tst	r2, #8
    1f08:	e1a03002 	mov	r3, r2
    1f0c:	e5840008 	str	r0, [r4, #8]
    1f10:	0a000027 	beq	1fb4 <__swbuf_r+0xd8>
    1f14:	e594c010 	ldr	r12, [r4, #16]
    1f18:	e35c0000 	cmp	r12, #0
    1f1c:	0a000024 	beq	1fb4 <__swbuf_r+0xd8>
    1f20:	e3130a02 	tst	r3, #8192	; 0x2000
    1f24:	05943064 	ldreq	r3, [r4, #100]	; 0x64
    1f28:	03c33a02 	biceq	r3, r3, #8192	; 0x2000
    1f2c:	03822a02 	orreq	r2, r2, #8192	; 0x2000
    1f30:	05843064 	streq	r3, [r4, #100]	; 0x64
    1f34:	e5943000 	ldr	r3, [r4]
    1f38:	01c420bc 	strheq	r2, [r4, #12]
    1f3c:	e5942014 	ldr	r2, [r4, #20]
    1f40:	e06cc003 	rsb	r12, r12, r3
    1f44:	e15c0002 	cmp	r12, r2
    1f48:	e20550ff 	and	r5, r5, #255	; 0xff
    1f4c:	b28cc001 	addlt	r12, r12, #1
    1f50:	aa000020 	bge	1fd8 <__swbuf_r+0xfc>
    1f54:	e5941008 	ldr	r1, [r4, #8]
    1f58:	e2832001 	add	r2, r3, #1
    1f5c:	e2411001 	sub	r1, r1, #1
    1f60:	e5841008 	str	r1, [r4, #8]
    1f64:	e5842000 	str	r2, [r4]
    1f68:	e5c35000 	strb	r5, [r3]
    1f6c:	e5943014 	ldr	r3, [r4, #20]
    1f70:	e153000c 	cmp	r3, r12
    1f74:	0a000007 	beq	1f98 <__swbuf_r+0xbc>
    1f78:	e1d430bc 	ldrh	r3, [r4, #12]
    1f7c:	e3130001 	tst	r3, #1
    1f80:	1a000002 	bne	1f90 <__swbuf_r+0xb4>
    1f84:	e1a00005 	mov	r0, r5
    1f88:	e8bd4070 	pop	{r4, r5, r6, lr}
    1f8c:	e12fff1e 	bx	lr
    1f90:	e355000a 	cmp	r5, #10
    1f94:	1afffffa 	bne	1f84 <__swbuf_r+0xa8>
    1f98:	e1a00006 	mov	r0, r6
    1f9c:	e1a01004 	mov	r1, r4
    1fa0:	eb000104 	bl	23b8 <_fflush_r>
    1fa4:	e3500000 	cmp	r0, #0
    1fa8:	0afffff5 	beq	1f84 <__swbuf_r+0xa8>
    1fac:	e3e00000 	mvn	r0, #0
    1fb0:	eafffff4 	b	1f88 <__swbuf_r+0xac>
    1fb4:	e1a00006 	mov	r0, r6
    1fb8:	e1a01004 	mov	r1, r4
    1fbc:	eb000015 	bl	2018 <__swsetup_r>
    1fc0:	e3500000 	cmp	r0, #0
    1fc4:	1afffff8 	bne	1fac <__swbuf_r+0xd0>
    1fc8:	e1d420bc 	ldrh	r2, [r4, #12]
    1fcc:	e594c010 	ldr	r12, [r4, #16]
    1fd0:	e1a03002 	mov	r3, r2
    1fd4:	eaffffd1 	b	1f20 <__swbuf_r+0x44>
    1fd8:	e1a00006 	mov	r0, r6
    1fdc:	e1a01004 	mov	r1, r4
    1fe0:	eb0000f4 	bl	23b8 <_fflush_r>
    1fe4:	e3500000 	cmp	r0, #0
    1fe8:	1affffef 	bne	1fac <__swbuf_r+0xd0>
    1fec:	e5943000 	ldr	r3, [r4]
    1ff0:	e3a0c001 	mov	r12, #1
    1ff4:	eaffffd6 	b	1f54 <__swbuf_r+0x78>
    1ff8:	eb000139 	bl	24e4 <__sinit>
    1ffc:	eaffffbe 	b	1efc <__swbuf_r+0x20>

00002000 <__swbuf>:
    2000:	e59f300c 	ldr	r3, [pc, #12]	; 2014 <__swbuf+0x14>
    2004:	e1a02001 	mov	r2, r1
    2008:	e1a01000 	mov	r1, r0
    200c:	e5930000 	ldr	r0, [r3]
    2010:	eaffffb1 	b	1edc <__swbuf_r>
    2014:	00003d28 	.word	0x00003d28

00002018 <__swsetup_r>:
    2018:	e92d4038 	push	{r3, r4, r5, lr}
    201c:	e59f314c 	ldr	r3, [pc, #332]	; 2170 <__swsetup_r+0x158>
    2020:	e5933000 	ldr	r3, [r3]
    2024:	e3530000 	cmp	r3, #0
    2028:	e1a05000 	mov	r5, r0
    202c:	e1a04001 	mov	r4, r1
    2030:	0a000002 	beq	2040 <__swsetup_r+0x28>
    2034:	e5932038 	ldr	r2, [r3, #56]	; 0x38
    2038:	e3520000 	cmp	r2, #0
    203c:	0a000032 	beq	210c <__swsetup_r+0xf4>
    2040:	e1d4c0bc 	ldrh	r12, [r4, #12]
    2044:	e31c0008 	tst	r12, #8
    2048:	e1a0300c 	mov	r3, r12
    204c:	0a00000c 	beq	2084 <__swsetup_r+0x6c>
    2050:	e5942010 	ldr	r2, [r4, #16]
    2054:	e3520000 	cmp	r2, #0
    2058:	0a000012 	beq	20a8 <__swsetup_r+0x90>
    205c:	e2131001 	ands	r1, r3, #1
    2060:	1a000019 	bne	20cc <__swsetup_r+0xb4>
    2064:	e3130002 	tst	r3, #2
    2068:	05941014 	ldreq	r1, [r4, #20]
    206c:	e3520000 	cmp	r2, #0
    2070:	e5841008 	str	r1, [r4, #8]
    2074:	13a00000 	movne	r0, #0
    2078:	0a00001b 	beq	20ec <__swsetup_r+0xd4>
    207c:	e8bd4038 	pop	{r3, r4, r5, lr}
    2080:	e12fff1e 	bx	lr
    2084:	e31c0010 	tst	r12, #16
    2088:	0a000032 	beq	2158 <__swsetup_r+0x140>
    208c:	e31c0004 	tst	r12, #4
    2090:	1a000020 	bne	2118 <__swsetup_r+0x100>
    2094:	e5942010 	ldr	r2, [r4, #16]
    2098:	e38c3008 	orr	r3, r12, #8
    209c:	e3520000 	cmp	r2, #0
    20a0:	e1c430bc 	strh	r3, [r4, #12]
    20a4:	1affffec 	bne	205c <__swsetup_r+0x44>
    20a8:	e2031d0a 	and	r1, r3, #640	; 0x280
    20ac:	e3510c02 	cmp	r1, #512	; 0x200
    20b0:	0affffe9 	beq	205c <__swsetup_r+0x44>
    20b4:	e1a00005 	mov	r0, r5
    20b8:	e1a01004 	mov	r1, r4
    20bc:	eb0002d5 	bl	2c18 <__smakebuf_r>
    20c0:	e1d430bc 	ldrh	r3, [r4, #12]
    20c4:	e5942010 	ldr	r2, [r4, #16]
    20c8:	eaffffe3 	b	205c <__swsetup_r+0x44>
    20cc:	e5941014 	ldr	r1, [r4, #20]
    20d0:	e3a03000 	mov	r3, #0
    20d4:	e2611000 	rsb	r1, r1, #0
    20d8:	e3520000 	cmp	r2, #0
    20dc:	e5841018 	str	r1, [r4, #24]
    20e0:	e5843008 	str	r3, [r4, #8]
    20e4:	13a00000 	movne	r0, #0
    20e8:	1affffe3 	bne	207c <__swsetup_r+0x64>
    20ec:	e1d430bc 	ldrh	r3, [r4, #12]
    20f0:	e3130080 	tst	r3, #128	; 0x80
    20f4:	13833040 	orrne	r3, r3, #64	; 0x40
    20f8:	11c430bc 	strhne	r3, [r4, #12]
    20fc:	13e00000 	mvnne	r0, #0
    2100:	01a00002 	moveq	r0, r2
    2104:	e8bd4038 	pop	{r3, r4, r5, lr}
    2108:	e12fff1e 	bx	lr
    210c:	e1a00003 	mov	r0, r3
    2110:	eb0000f3 	bl	24e4 <__sinit>
    2114:	eaffffc9 	b	2040 <__swsetup_r+0x28>
    2118:	e5941030 	ldr	r1, [r4, #48]	; 0x30
    211c:	e3510000 	cmp	r1, #0
    2120:	0a000007 	beq	2144 <__swsetup_r+0x12c>
    2124:	e2843040 	add	r3, r4, #64	; 0x40
    2128:	e1510003 	cmp	r1, r3
    212c:	0a000002 	beq	213c <__swsetup_r+0x124>
    2130:	e1a00005 	mov	r0, r5
    2134:	eb0001d8 	bl	289c <_free_r>
    2138:	e1d4c0bc 	ldrh	r12, [r4, #12]
    213c:	e3a03000 	mov	r3, #0
    2140:	e5843030 	str	r3, [r4, #48]	; 0x30
    2144:	e5942010 	ldr	r2, [r4, #16]
    2148:	e3a03000 	mov	r3, #0
    214c:	e3ccc024 	bic	r12, r12, #36	; 0x24
    2150:	e884000c 	stm	r4, {r2, r3}
    2154:	eaffffcf 	b	2098 <__swsetup_r+0x80>
    2158:	e38cc040 	orr	r12, r12, #64	; 0x40
    215c:	e3a03009 	mov	r3, #9
    2160:	e5853000 	str	r3, [r5]
    2164:	e3e00000 	mvn	r0, #0
    2168:	e1c4c0bc 	strh	r12, [r4, #12]
    216c:	eaffffc2 	b	207c <__swsetup_r+0x64>
    2170:	00003d28 	.word	0x00003d28

00002174 <__sflush_r>:
    2174:	e92d40f8 	push	{r3, r4, r5, r6, r7, lr}
    2178:	e1d130bc 	ldrh	r3, [r1, #12]
    217c:	e3130008 	tst	r3, #8
    2180:	e1a05001 	mov	r5, r1
    2184:	e1a07000 	mov	r7, r0
    2188:	1a000030 	bne	2250 <__sflush_r+0xdc>
    218c:	e5912004 	ldr	r2, [r1, #4]
    2190:	e3833b02 	orr	r3, r3, #2048	; 0x800
    2194:	e3520000 	cmp	r2, #0
    2198:	e1c130bc 	strh	r3, [r1, #12]
    219c:	da00004b 	ble	22d0 <__sflush_r+0x15c>
    21a0:	e595c028 	ldr	r12, [r5, #40]	; 0x28
    21a4:	e35c0000 	cmp	r12, #0
    21a8:	0a00004b 	beq	22dc <__sflush_r+0x168>
    21ac:	e3a01000 	mov	r1, #0
    21b0:	e2136a01 	ands	r6, r3, #4096	; 0x1000
    21b4:	e5974000 	ldr	r4, [r7]
    21b8:	e5871000 	str	r1, [r7]
    21bc:	0a000049 	beq	22e8 <__sflush_r+0x174>
    21c0:	e5952050 	ldr	r2, [r5, #80]	; 0x50
    21c4:	e3130004 	tst	r3, #4
    21c8:	0a000005 	beq	21e4 <__sflush_r+0x70>
    21cc:	e5951030 	ldr	r1, [r5, #48]	; 0x30
    21d0:	e5953004 	ldr	r3, [r5, #4]
    21d4:	e3510000 	cmp	r1, #0
    21d8:	e0632002 	rsb	r2, r3, r2
    21dc:	1595303c 	ldrne	r3, [r5, #60]	; 0x3c
    21e0:	10632002 	rsbne	r2, r3, r2
    21e4:	e1a00007 	mov	r0, r7
    21e8:	e595101c 	ldr	r1, [r5, #28]
    21ec:	e3a03000 	mov	r3, #0
    21f0:	e1a0e00f 	mov	lr, pc
    21f4:	e12fff1c 	bx	r12
    21f8:	e3700001 	cmn	r0, #1
    21fc:	0a000045 	beq	2318 <__sflush_r+0x1a4>
    2200:	e1d530bc 	ldrh	r3, [r5, #12]
    2204:	e5951010 	ldr	r1, [r5, #16]
    2208:	e3c33b02 	bic	r3, r3, #2048	; 0x800
    220c:	e3a02000 	mov	r2, #0
    2210:	e3130a01 	tst	r3, #4096	; 0x1000
    2214:	e1c530bc 	strh	r3, [r5, #12]
    2218:	e8850006 	stm	r5, {r1, r2}
    221c:	1a000048 	bne	2344 <__sflush_r+0x1d0>
    2220:	e5951030 	ldr	r1, [r5, #48]	; 0x30
    2224:	e3510000 	cmp	r1, #0
    2228:	e5874000 	str	r4, [r7]
    222c:	0a00002a 	beq	22dc <__sflush_r+0x168>
    2230:	e2853040 	add	r3, r5, #64	; 0x40
    2234:	e1510003 	cmp	r1, r3
    2238:	11a00007 	movne	r0, r7
    223c:	1b000196 	blne	289c <_free_r>
    2240:	e3a00000 	mov	r0, #0
    2244:	e5850030 	str	r0, [r5, #48]	; 0x30
    2248:	e8bd40f8 	pop	{r3, r4, r5, r6, r7, lr}
    224c:	e12fff1e 	bx	lr
    2250:	e5916010 	ldr	r6, [r1, #16]
    2254:	e3560000 	cmp	r6, #0
    2258:	0a00001f 	beq	22dc <__sflush_r+0x168>
    225c:	e5914000 	ldr	r4, [r1]
    2260:	e3130003 	tst	r3, #3
    2264:	05913014 	ldreq	r3, [r1, #20]
    2268:	e0664004 	rsb	r4, r6, r4
    226c:	13a03000 	movne	r3, #0
    2270:	e3540000 	cmp	r4, #0
    2274:	e5816000 	str	r6, [r1]
    2278:	e5813008 	str	r3, [r1, #8]
    227c:	ca000003 	bgt	2290 <__sflush_r+0x11c>
    2280:	ea000015 	b	22dc <__sflush_r+0x168>
    2284:	e3540000 	cmp	r4, #0
    2288:	e0866000 	add	r6, r6, r0
    228c:	da000012 	ble	22dc <__sflush_r+0x168>
    2290:	e1a03004 	mov	r3, r4
    2294:	e1a00007 	mov	r0, r7
    2298:	e595101c 	ldr	r1, [r5, #28]
    229c:	e1a02006 	mov	r2, r6
    22a0:	e595c024 	ldr	r12, [r5, #36]	; 0x24
    22a4:	e1a0e00f 	mov	lr, pc
    22a8:	e12fff1c 	bx	r12
    22ac:	e3500000 	cmp	r0, #0
    22b0:	e0604004 	rsb	r4, r0, r4
    22b4:	cafffff2 	bgt	2284 <__sflush_r+0x110>
    22b8:	e1d530bc 	ldrh	r3, [r5, #12]
    22bc:	e3833040 	orr	r3, r3, #64	; 0x40
    22c0:	e1c530bc 	strh	r3, [r5, #12]
    22c4:	e3e00000 	mvn	r0, #0
    22c8:	e8bd40f8 	pop	{r3, r4, r5, r6, r7, lr}
    22cc:	e12fff1e 	bx	lr
    22d0:	e591203c 	ldr	r2, [r1, #60]	; 0x3c
    22d4:	e3520000 	cmp	r2, #0
    22d8:	caffffb0 	bgt	21a0 <__sflush_r+0x2c>
    22dc:	e3a00000 	mov	r0, #0
    22e0:	e8bd40f8 	pop	{r3, r4, r5, r6, r7, lr}
    22e4:	e12fff1e 	bx	lr
    22e8:	e1a02006 	mov	r2, r6
    22ec:	e1a00007 	mov	r0, r7
    22f0:	e595101c 	ldr	r1, [r5, #28]
    22f4:	e3a03001 	mov	r3, #1
    22f8:	e1a0e00f 	mov	lr, pc
    22fc:	e12fff1c 	bx	r12
    2300:	e3700001 	cmn	r0, #1
    2304:	e1a02000 	mov	r2, r0
    2308:	0a00001a 	beq	2378 <__sflush_r+0x204>
    230c:	e1d530bc 	ldrh	r3, [r5, #12]
    2310:	e595c028 	ldr	r12, [r5, #40]	; 0x28
    2314:	eaffffaa 	b	21c4 <__sflush_r+0x50>
    2318:	e5973000 	ldr	r3, [r7]
    231c:	e3530000 	cmp	r3, #0
    2320:	1a000009 	bne	234c <__sflush_r+0x1d8>
    2324:	e1d520bc 	ldrh	r2, [r5, #12]
    2328:	e5951010 	ldr	r1, [r5, #16]
    232c:	e3c22b02 	bic	r2, r2, #2048	; 0x800
    2330:	e3120a01 	tst	r2, #4096	; 0x1000
    2334:	e5853004 	str	r3, [r5, #4]
    2338:	e1c520bc 	strh	r2, [r5, #12]
    233c:	e5851000 	str	r1, [r5]
    2340:	0affffb6 	beq	2220 <__sflush_r+0xac>
    2344:	e5850050 	str	r0, [r5, #80]	; 0x50
    2348:	eaffffb4 	b	2220 <__sflush_r+0xac>
    234c:	e353001d 	cmp	r3, #29
    2350:	0a000001 	beq	235c <__sflush_r+0x1e8>
    2354:	e3530016 	cmp	r3, #22
    2358:	1a000012 	bne	23a8 <__sflush_r+0x234>
    235c:	e1d510bc 	ldrh	r1, [r5, #12]
    2360:	e5952010 	ldr	r2, [r5, #16]
    2364:	e3c11b02 	bic	r1, r1, #2048	; 0x800
    2368:	e3a03000 	mov	r3, #0
    236c:	e1c510bc 	strh	r1, [r5, #12]
    2370:	e885000c 	stm	r5, {r2, r3}
    2374:	eaffffa9 	b	2220 <__sflush_r+0xac>
    2378:	e5973000 	ldr	r3, [r7]
    237c:	e3530000 	cmp	r3, #0
    2380:	0affffe1 	beq	230c <__sflush_r+0x198>
    2384:	e353001d 	cmp	r3, #29
    2388:	13530016 	cmpne	r3, #22
    238c:	11d530bc 	ldrhne	r3, [r5, #12]
    2390:	13833040 	orrne	r3, r3, #64	; 0x40
    2394:	05874000 	streq	r4, [r7]
    2398:	01a00006 	moveq	r0, r6
    239c:	11a00002 	movne	r0, r2
    23a0:	11c530bc 	strhne	r3, [r5, #12]
    23a4:	eaffffc7 	b	22c8 <__sflush_r+0x154>
    23a8:	e1d530bc 	ldrh	r3, [r5, #12]
    23ac:	e3833040 	orr	r3, r3, #64	; 0x40
    23b0:	e1c530bc 	strh	r3, [r5, #12]
    23b4:	eaffffc3 	b	22c8 <__sflush_r+0x154>

000023b8 <_fflush_r>:
    23b8:	e92d4010 	push	{r4, lr}
    23bc:	e2504000 	subs	r4, r0, #0
    23c0:	e24dd008 	sub	sp, sp, #8
    23c4:	0a000002 	beq	23d4 <_fflush_r+0x1c>
    23c8:	e5943038 	ldr	r3, [r4, #56]	; 0x38
    23cc:	e3530000 	cmp	r3, #0
    23d0:	0a000009 	beq	23fc <_fflush_r+0x44>
    23d4:	e1d100fc 	ldrsh	r0, [r1, #12]
    23d8:	e3500000 	cmp	r0, #0
    23dc:	1a000002 	bne	23ec <_fflush_r+0x34>
    23e0:	e28dd008 	add	sp, sp, #8
    23e4:	e8bd4010 	pop	{r4, lr}
    23e8:	e12fff1e 	bx	lr
    23ec:	e1a00004 	mov	r0, r4
    23f0:	e28dd008 	add	sp, sp, #8
    23f4:	e8bd4010 	pop	{r4, lr}
    23f8:	eaffff5d 	b	2174 <__sflush_r>
    23fc:	e58d1004 	str	r1, [sp, #4]
    2400:	eb000037 	bl	24e4 <__sinit>
    2404:	e59d1004 	ldr	r1, [sp, #4]
    2408:	eafffff1 	b	23d4 <_fflush_r+0x1c>

0000240c <fflush>:
    240c:	e2501000 	subs	r1, r0, #0
    2410:	e92d4008 	push	{r3, lr}
    2414:	159f3020 	ldrne	r3, [pc, #32]	; 243c <fflush+0x30>
    2418:	15930000 	ldrne	r0, [r3]
    241c:	18bd4008 	popne	{r3, lr}
    2420:	1affffe4 	bne	23b8 <_fflush_r>
    2424:	e59f3014 	ldr	r3, [pc, #20]	; 2440 <fflush+0x34>
    2428:	e59f1014 	ldr	r1, [pc, #20]	; 2444 <fflush+0x38>
    242c:	e5930000 	ldr	r0, [r3]
    2430:	eb0001d5 	bl	2b8c <_fwalk_reent>
    2434:	e8bd4008 	pop	{r3, lr}
    2438:	e12fff1e 	bx	lr
    243c:	00003d28 	.word	0x00003d28
    2440:	00003cb8 	.word	0x00003cb8
    2444:	000023b8 	.word	0x000023b8

00002448 <__fp_lock>:
    2448:	e3a00000 	mov	r0, #0
    244c:	e12fff1e 	bx	lr

00002450 <__fp_unlock>:
    2450:	e3a00000 	mov	r0, #0
    2454:	e12fff1e 	bx	lr

00002458 <_cleanup_r>:
    2458:	e92d4008 	push	{r3, lr}
    245c:	e59f1008 	ldr	r1, [pc, #8]	; 246c <_cleanup_r+0x14>
    2460:	eb0001a8 	bl	2b08 <_fwalk>
    2464:	e8bd4008 	pop	{r3, lr}
    2468:	e12fff1e 	bx	lr
    246c:	00003408 	.word	0x00003408

00002470 <__sfmoreglue>:
    2470:	e2413001 	sub	r3, r1, #1
    2474:	e92d4070 	push	{r4, r5, r6, lr}
    2478:	e0835083 	add	r5, r3, r3, lsl #1
    247c:	e0833105 	add	r3, r3, r5, lsl #2
    2480:	e1a05183 	lsl	r5, r3, #3
    2484:	e1a06001 	mov	r6, r1
    2488:	e2851074 	add	r1, r5, #116	; 0x74
    248c:	ebfffa19 	bl	cf8 <_malloc_r>
    2490:	e2504000 	subs	r4, r0, #0
    2494:	0a000006 	beq	24b4 <__sfmoreglue+0x44>
    2498:	e3a01000 	mov	r1, #0
    249c:	e284000c 	add	r0, r4, #12
    24a0:	e5846004 	str	r6, [r4, #4]
    24a4:	e2852068 	add	r2, r5, #104	; 0x68
    24a8:	e5841000 	str	r1, [r4]
    24ac:	e5840008 	str	r0, [r4, #8]
    24b0:	eb000235 	bl	2d8c <memset>
    24b4:	e1a00004 	mov	r0, r4
    24b8:	e8bd4070 	pop	{r4, r5, r6, lr}
    24bc:	e12fff1e 	bx	lr

000024c0 <_cleanup>:
    24c0:	e92d4008 	push	{r3, lr}
    24c4:	e59f3010 	ldr	r3, [pc, #16]	; 24dc <_cleanup+0x1c>
    24c8:	e59f1010 	ldr	r1, [pc, #16]	; 24e0 <_cleanup+0x20>
    24cc:	e5930000 	ldr	r0, [r3]
    24d0:	eb00018c 	bl	2b08 <_fwalk>
    24d4:	e8bd4008 	pop	{r3, lr}
    24d8:	e12fff1e 	bx	lr
    24dc:	00003cb8 	.word	0x00003cb8
    24e0:	00003408 	.word	0x00003408

000024e4 <__sinit>:
    24e4:	e92d4ff0 	push	{r4, r5, r6, r7, r8, r9, r10, r11, lr}
    24e8:	e5904038 	ldr	r4, [r0, #56]	; 0x38
    24ec:	e3540000 	cmp	r4, #0
    24f0:	e24dd00c 	sub	sp, sp, #12
    24f4:	e1a07000 	mov	r7, r0
    24f8:	1a00004b 	bne	262c <__sinit+0x148>
    24fc:	e5975004 	ldr	r5, [r7, #4]
    2500:	e59f0130 	ldr	r0, [pc, #304]	; 2638 <__sinit+0x154>
    2504:	e3a03004 	mov	r3, #4
    2508:	e3a01003 	mov	r1, #3
    250c:	e2872fbb 	add	r2, r7, #748	; 0x2ec
    2510:	e587003c 	str	r0, [r7, #60]	; 0x3c
    2514:	e58712e4 	str	r1, [r7, #740]	; 0x2e4
    2518:	e58722e8 	str	r2, [r7, #744]	; 0x2e8
    251c:	e58742e0 	str	r4, [r7, #736]	; 0x2e0
    2520:	e285005c 	add	r0, r5, #92	; 0x5c
    2524:	e1c530bc 	strh	r3, [r5, #12]
    2528:	e5854000 	str	r4, [r5]
    252c:	e5854004 	str	r4, [r5, #4]
    2530:	e5854008 	str	r4, [r5, #8]
    2534:	e5854064 	str	r4, [r5, #100]	; 0x64
    2538:	e1c540be 	strh	r4, [r5, #14]
    253c:	e5854010 	str	r4, [r5, #16]
    2540:	e5854014 	str	r4, [r5, #20]
    2544:	e5854018 	str	r4, [r5, #24]
    2548:	e1a01004 	mov	r1, r4
    254c:	e3a02008 	mov	r2, #8
    2550:	eb00020d 	bl	2d8c <memset>
    2554:	e59fb0e0 	ldr	r11, [pc, #224]	; 263c <__sinit+0x158>
    2558:	e5976008 	ldr	r6, [r7, #8]
    255c:	e59fa0dc 	ldr	r10, [pc, #220]	; 2640 <__sinit+0x15c>
    2560:	e59f90dc 	ldr	r9, [pc, #220]	; 2644 <__sinit+0x160>
    2564:	e59f80dc 	ldr	r8, [pc, #220]	; 2648 <__sinit+0x164>
    2568:	e3a03001 	mov	r3, #1
    256c:	e3a02009 	mov	r2, #9
    2570:	e585501c 	str	r5, [r5, #28]
    2574:	e585b020 	str	r11, [r5, #32]
    2578:	e585a024 	str	r10, [r5, #36]	; 0x24
    257c:	e5859028 	str	r9, [r5, #40]	; 0x28
    2580:	e585802c 	str	r8, [r5, #44]	; 0x2c
    2584:	e1a01004 	mov	r1, r4
    2588:	e1c630be 	strh	r3, [r6, #14]
    258c:	e1c620bc 	strh	r2, [r6, #12]
    2590:	e5864000 	str	r4, [r6]
    2594:	e5864004 	str	r4, [r6, #4]
    2598:	e5864008 	str	r4, [r6, #8]
    259c:	e5864064 	str	r4, [r6, #100]	; 0x64
    25a0:	e5864010 	str	r4, [r6, #16]
    25a4:	e5864014 	str	r4, [r6, #20]
    25a8:	e5864018 	str	r4, [r6, #24]
    25ac:	e3a02008 	mov	r2, #8
    25b0:	e286005c 	add	r0, r6, #92	; 0x5c
    25b4:	e58d3004 	str	r3, [sp, #4]
    25b8:	eb0001f3 	bl	2d8c <memset>
    25bc:	e597500c 	ldr	r5, [r7, #12]
    25c0:	e3a00012 	mov	r0, #18
    25c4:	e3a02002 	mov	r2, #2
    25c8:	e586601c 	str	r6, [r6, #28]
    25cc:	e586b020 	str	r11, [r6, #32]
    25d0:	e586a024 	str	r10, [r6, #36]	; 0x24
    25d4:	e5869028 	str	r9, [r6, #40]	; 0x28
    25d8:	e586802c 	str	r8, [r6, #44]	; 0x2c
    25dc:	e1a01004 	mov	r1, r4
    25e0:	e1c500bc 	strh	r0, [r5, #12]
    25e4:	e1c520be 	strh	r2, [r5, #14]
    25e8:	e5854000 	str	r4, [r5]
    25ec:	e5854004 	str	r4, [r5, #4]
    25f0:	e5854008 	str	r4, [r5, #8]
    25f4:	e5854064 	str	r4, [r5, #100]	; 0x64
    25f8:	e5854010 	str	r4, [r5, #16]
    25fc:	e5854014 	str	r4, [r5, #20]
    2600:	e5854018 	str	r4, [r5, #24]
    2604:	e285005c 	add	r0, r5, #92	; 0x5c
    2608:	e3a02008 	mov	r2, #8
    260c:	eb0001de 	bl	2d8c <memset>
    2610:	e59d3004 	ldr	r3, [sp, #4]
    2614:	e585501c 	str	r5, [r5, #28]
    2618:	e585b020 	str	r11, [r5, #32]
    261c:	e585a024 	str	r10, [r5, #36]	; 0x24
    2620:	e5859028 	str	r9, [r5, #40]	; 0x28
    2624:	e585802c 	str	r8, [r5, #44]	; 0x2c
    2628:	e5873038 	str	r3, [r7, #56]	; 0x38
    262c:	e28dd00c 	add	sp, sp, #12
    2630:	e8bd4ff0 	pop	{r4, r5, r6, r7, r8, r9, r10, r11, lr}
    2634:	e12fff1e 	bx	lr
    2638:	00002458 	.word	0x00002458
    263c:	000031c0 	.word	0x000031c0
    2640:	000031fc 	.word	0x000031fc
    2644:	00003254 	.word	0x00003254
    2648:	00003284 	.word	0x00003284

0000264c <__sfp>:
    264c:	e59f30ec 	ldr	r3, [pc, #236]	; 2740 <__sfp+0xf4>
    2650:	e92d4070 	push	{r4, r5, r6, lr}
    2654:	e5935000 	ldr	r5, [r3]
    2658:	e5953038 	ldr	r3, [r5, #56]	; 0x38
    265c:	e3530000 	cmp	r3, #0
    2660:	e1a06000 	mov	r6, r0
    2664:	0a00002f 	beq	2728 <__sfp+0xdc>
    2668:	e2855e2e 	add	r5, r5, #736	; 0x2e0
    266c:	e5953004 	ldr	r3, [r5, #4]
    2670:	e2533001 	subs	r3, r3, #1
    2674:	e5954008 	ldr	r4, [r5, #8]
    2678:	5a000004 	bpl	2690 <__sfp+0x44>
    267c:	ea00001d 	b	26f8 <__sfp+0xac>
    2680:	e2433001 	sub	r3, r3, #1
    2684:	e3730001 	cmn	r3, #1
    2688:	e2844068 	add	r4, r4, #104	; 0x68
    268c:	0a000019 	beq	26f8 <__sfp+0xac>
    2690:	e1d420fc 	ldrsh	r2, [r4, #12]
    2694:	e3520000 	cmp	r2, #0
    2698:	1afffff8 	bne	2680 <__sfp+0x34>
    269c:	e3a05000 	mov	r5, #0
    26a0:	e3e02000 	mvn	r2, #0
    26a4:	e3a03001 	mov	r3, #1
    26a8:	e1c420be 	strh	r2, [r4, #14]
    26ac:	e1c430bc 	strh	r3, [r4, #12]
    26b0:	e5845064 	str	r5, [r4, #100]	; 0x64
    26b4:	e5845000 	str	r5, [r4]
    26b8:	e5845008 	str	r5, [r4, #8]
    26bc:	e5845004 	str	r5, [r4, #4]
    26c0:	e5845010 	str	r5, [r4, #16]
    26c4:	e5845014 	str	r5, [r4, #20]
    26c8:	e5845018 	str	r5, [r4, #24]
    26cc:	e1a01005 	mov	r1, r5
    26d0:	e284005c 	add	r0, r4, #92	; 0x5c
    26d4:	e3a02008 	mov	r2, #8
    26d8:	eb0001ab 	bl	2d8c <memset>
    26dc:	e5845030 	str	r5, [r4, #48]	; 0x30
    26e0:	e5845034 	str	r5, [r4, #52]	; 0x34
    26e4:	e5845044 	str	r5, [r4, #68]	; 0x44
    26e8:	e5845048 	str	r5, [r4, #72]	; 0x48
    26ec:	e1a00004 	mov	r0, r4
    26f0:	e8bd4070 	pop	{r4, r5, r6, lr}
    26f4:	e12fff1e 	bx	lr
    26f8:	e5953000 	ldr	r3, [r5]
    26fc:	e3530000 	cmp	r3, #0
    2700:	11a05003 	movne	r5, r3
    2704:	1affffd8 	bne	266c <__sfp+0x20>
    2708:	e1a00006 	mov	r0, r6
    270c:	e3a01004 	mov	r1, #4
    2710:	ebffff56 	bl	2470 <__sfmoreglue>
    2714:	e3500000 	cmp	r0, #0
    2718:	e5850000 	str	r0, [r5]
    271c:	0a000004 	beq	2734 <__sfp+0xe8>
    2720:	e1a05000 	mov	r5, r0
    2724:	eaffffd0 	b	266c <__sfp+0x20>
    2728:	e1a00005 	mov	r0, r5
    272c:	ebffff6c 	bl	24e4 <__sinit>
    2730:	eaffffcc 	b	2668 <__sfp+0x1c>
    2734:	e3a0300c 	mov	r3, #12
    2738:	e5863000 	str	r3, [r6]
    273c:	eaffffeb 	b	26f0 <__sfp+0xa4>
    2740:	00003cb8 	.word	0x00003cb8

00002744 <__sfp_lock_acquire>:
    2744:	e12fff1e 	bx	lr

00002748 <__sfp_lock_release>:
    2748:	e12fff1e 	bx	lr

0000274c <__sinit_lock_acquire>:
    274c:	e12fff1e 	bx	lr

00002750 <__sinit_lock_release>:
    2750:	e12fff1e 	bx	lr

00002754 <__fp_lock_all>:
    2754:	e92d4008 	push	{r3, lr}
    2758:	e59f3010 	ldr	r3, [pc, #16]	; 2770 <__fp_lock_all+0x1c>
    275c:	e59f1010 	ldr	r1, [pc, #16]	; 2774 <__fp_lock_all+0x20>
    2760:	e5930000 	ldr	r0, [r3]
    2764:	eb0000e7 	bl	2b08 <_fwalk>
    2768:	e8bd4008 	pop	{r3, lr}
    276c:	e12fff1e 	bx	lr
    2770:	00003d28 	.word	0x00003d28
    2774:	00002448 	.word	0x00002448

00002778 <__fp_unlock_all>:
    2778:	e92d4008 	push	{r3, lr}
    277c:	e59f3010 	ldr	r3, [pc, #16]	; 2794 <__fp_unlock_all+0x1c>
    2780:	e59f1010 	ldr	r1, [pc, #16]	; 2798 <__fp_unlock_all+0x20>
    2784:	e5930000 	ldr	r0, [r3]
    2788:	eb0000de 	bl	2b08 <_fwalk>
    278c:	e8bd4008 	pop	{r3, lr}
    2790:	e12fff1e 	bx	lr
    2794:	00003d28 	.word	0x00003d28
    2798:	00002450 	.word	0x00002450

0000279c <_malloc_trim_r>:
    279c:	e92d40f8 	push	{r3, r4, r5, r6, r7, lr}
    27a0:	e59f50e8 	ldr	r5, [pc, #232]	; 2890 <_malloc_trim_r+0xf4>
    27a4:	e1a07001 	mov	r7, r1
    27a8:	e1a04000 	mov	r4, r0
    27ac:	ebfffbea 	bl	175c <__malloc_lock>
    27b0:	e5953008 	ldr	r3, [r5, #8]
    27b4:	e5936004 	ldr	r6, [r3, #4]
    27b8:	e3c66003 	bic	r6, r6, #3
    27bc:	e0677006 	rsb	r7, r7, r6
    27c0:	e2877efe 	add	r7, r7, #4064	; 0xfe0
    27c4:	e287700f 	add	r7, r7, #15
    27c8:	e1a07627 	lsr	r7, r7, #12
    27cc:	e2477001 	sub	r7, r7, #1
    27d0:	e1a07607 	lsl	r7, r7, #12
    27d4:	e3570a01 	cmp	r7, #4096	; 0x1000
    27d8:	ba000006 	blt	27f8 <_malloc_trim_r+0x5c>
    27dc:	e1a00004 	mov	r0, r4
    27e0:	e3a01000 	mov	r1, #0
    27e4:	ebfffdab 	bl	1e98 <_sbrk_r>
    27e8:	e5953008 	ldr	r3, [r5, #8]
    27ec:	e0833006 	add	r3, r3, r6
    27f0:	e1500003 	cmp	r0, r3
    27f4:	0a000004 	beq	280c <_malloc_trim_r+0x70>
    27f8:	e1a00004 	mov	r0, r4
    27fc:	ebfffbd7 	bl	1760 <__malloc_unlock>
    2800:	e3a00000 	mov	r0, #0
    2804:	e8bd40f8 	pop	{r3, r4, r5, r6, r7, lr}
    2808:	e12fff1e 	bx	lr
    280c:	e1a00004 	mov	r0, r4
    2810:	e2671000 	rsb	r1, r7, #0
    2814:	ebfffd9f 	bl	1e98 <_sbrk_r>
    2818:	e3700001 	cmn	r0, #1
    281c:	0a00000c 	beq	2854 <_malloc_trim_r+0xb8>
    2820:	e59f306c 	ldr	r3, [pc, #108]	; 2894 <_malloc_trim_r+0xf8>
    2824:	e5951008 	ldr	r1, [r5, #8]
    2828:	e5932000 	ldr	r2, [r3]
    282c:	e0676006 	rsb	r6, r7, r6
    2830:	e3866001 	orr	r6, r6, #1
    2834:	e1a00004 	mov	r0, r4
    2838:	e0677002 	rsb	r7, r7, r2
    283c:	e5816004 	str	r6, [r1, #4]
    2840:	e5837000 	str	r7, [r3]
    2844:	ebfffbc5 	bl	1760 <__malloc_unlock>
    2848:	e3a00001 	mov	r0, #1
    284c:	e8bd40f8 	pop	{r3, r4, r5, r6, r7, lr}
    2850:	e12fff1e 	bx	lr
    2854:	e1a00004 	mov	r0, r4
    2858:	e3a01000 	mov	r1, #0
    285c:	ebfffd8d 	bl	1e98 <_sbrk_r>
    2860:	e5953008 	ldr	r3, [r5, #8]
    2864:	e0632000 	rsb	r2, r3, r0
    2868:	e352000f 	cmp	r2, #15
    286c:	daffffe1 	ble	27f8 <_malloc_trim_r+0x5c>
    2870:	e59f1020 	ldr	r1, [pc, #32]	; 2898 <_malloc_trim_r+0xfc>
    2874:	e591c000 	ldr	r12, [r1]
    2878:	e59f1014 	ldr	r1, [pc, #20]	; 2894 <_malloc_trim_r+0xf8>
    287c:	e3822001 	orr	r2, r2, #1
    2880:	e06c0000 	rsb	r0, r12, r0
    2884:	e5832004 	str	r2, [r3, #4]
    2888:	e5810000 	str	r0, [r1]
    288c:	eaffffd9 	b	27f8 <_malloc_trim_r+0x5c>
    2890:	00004158 	.word	0x00004158
    2894:	00004590 	.word	0x00004590
    2898:	00004560 	.word	0x00004560

0000289c <_free_r>:
    289c:	e92d40f8 	push	{r3, r4, r5, r6, r7, lr}
    28a0:	e2514000 	subs	r4, r1, #0
    28a4:	e1a06000 	mov	r6, r0
    28a8:	0a000046 	beq	29c8 <_free_r+0x12c>
    28ac:	ebfffbaa 	bl	175c <__malloc_lock>
    28b0:	e514e004 	ldr	lr, [r4, #-4]
    28b4:	e59f1238 	ldr	r1, [pc, #568]	; 2af4 <_free_r+0x258>
    28b8:	e3ce3001 	bic	r3, lr, #1
    28bc:	e244c008 	sub	r12, r4, #8
    28c0:	e08c2003 	add	r2, r12, r3
    28c4:	e5910008 	ldr	r0, [r1, #8]
    28c8:	e5925004 	ldr	r5, [r2, #4]
    28cc:	e1500002 	cmp	r0, r2
    28d0:	e3c55003 	bic	r5, r5, #3
    28d4:	0a00004a 	beq	2a04 <_free_r+0x168>
    28d8:	e21ee001 	ands	lr, lr, #1
    28dc:	e5825004 	str	r5, [r2, #4]
    28e0:	13a0e000 	movne	lr, #0
    28e4:	1a000009 	bne	2910 <_free_r+0x74>
    28e8:	e5144008 	ldr	r4, [r4, #-8]
    28ec:	e064c00c 	rsb	r12, r4, r12
    28f0:	e59c0008 	ldr	r0, [r12, #8]
    28f4:	e2817008 	add	r7, r1, #8
    28f8:	e1500007 	cmp	r0, r7
    28fc:	e0833004 	add	r3, r3, r4
    2900:	159c400c 	ldrne	r4, [r12, #12]
    2904:	1580400c 	strne	r4, [r0, #12]
    2908:	15840008 	strne	r0, [r4, #8]
    290c:	03a0e001 	moveq	lr, #1
    2910:	e0820005 	add	r0, r2, r5
    2914:	e5900004 	ldr	r0, [r0, #4]
    2918:	e3100001 	tst	r0, #1
    291c:	1a000009 	bne	2948 <_free_r+0xac>
    2920:	e35e0000 	cmp	lr, #0
    2924:	e5920008 	ldr	r0, [r2, #8]
    2928:	e0833005 	add	r3, r3, r5
    292c:	1a000002 	bne	293c <_free_r+0xa0>
    2930:	e59f41c0 	ldr	r4, [pc, #448]	; 2af8 <_free_r+0x25c>
    2934:	e1500004 	cmp	r0, r4
    2938:	0a000047 	beq	2a5c <_free_r+0x1c0>
    293c:	e592200c 	ldr	r2, [r2, #12]
    2940:	e580200c 	str	r2, [r0, #12]
    2944:	e5820008 	str	r0, [r2, #8]
    2948:	e3832001 	orr	r2, r3, #1
    294c:	e35e0000 	cmp	lr, #0
    2950:	e58c2004 	str	r2, [r12, #4]
    2954:	e78c3003 	str	r3, [r12, r3]
    2958:	1a000018 	bne	29c0 <_free_r+0x124>
    295c:	e3530c02 	cmp	r3, #512	; 0x200
    2960:	3a00001a 	bcc	29d0 <_free_r+0x134>
    2964:	e1a024a3 	lsr	r2, r3, #9
    2968:	e3520004 	cmp	r2, #4
    296c:	8a000042 	bhi	2a7c <_free_r+0x1e0>
    2970:	e1a0e323 	lsr	lr, r3, #6
    2974:	e28ee038 	add	lr, lr, #56	; 0x38
    2978:	e1a0008e 	lsl	r0, lr, #1
    297c:	e0810100 	add	r0, r1, r0, lsl #2
    2980:	e5902008 	ldr	r2, [r0, #8]
    2984:	e1520000 	cmp	r2, r0
    2988:	e59f1164 	ldr	r1, [pc, #356]	; 2af4 <_free_r+0x258>
    298c:	0a000044 	beq	2aa4 <_free_r+0x208>
    2990:	e5921004 	ldr	r1, [r2, #4]
    2994:	e3c11003 	bic	r1, r1, #3
    2998:	e1530001 	cmp	r3, r1
    299c:	2a000002 	bcs	29ac <_free_r+0x110>
    29a0:	e5922008 	ldr	r2, [r2, #8]
    29a4:	e1500002 	cmp	r0, r2
    29a8:	1afffff8 	bne	2990 <_free_r+0xf4>
    29ac:	e592300c 	ldr	r3, [r2, #12]
    29b0:	e58c300c 	str	r3, [r12, #12]
    29b4:	e58c2008 	str	r2, [r12, #8]
    29b8:	e583c008 	str	r12, [r3, #8]
    29bc:	e582c00c 	str	r12, [r2, #12]
    29c0:	e1a00006 	mov	r0, r6
    29c4:	ebfffb65 	bl	1760 <__malloc_unlock>
    29c8:	e8bd40f8 	pop	{r3, r4, r5, r6, r7, lr}
    29cc:	e12fff1e 	bx	lr
    29d0:	e5912004 	ldr	r2, [r1, #4]
    29d4:	e1a031a3 	lsr	r3, r3, #3
    29d8:	e1a00143 	asr	r0, r3, #2
    29dc:	e3a0e001 	mov	lr, #1
    29e0:	e182001e 	orr	r0, r2, lr, lsl r0
    29e4:	e0813183 	add	r3, r1, r3, lsl #3
    29e8:	e5932008 	ldr	r2, [r3, #8]
    29ec:	e5810004 	str	r0, [r1, #4]
    29f0:	e58c2008 	str	r2, [r12, #8]
    29f4:	e58c300c 	str	r3, [r12, #12]
    29f8:	e583c008 	str	r12, [r3, #8]
    29fc:	e582c00c 	str	r12, [r2, #12]
    2a00:	eaffffee 	b	29c0 <_free_r+0x124>
    2a04:	e31e0001 	tst	lr, #1
    2a08:	e0853003 	add	r3, r5, r3
    2a0c:	1a000006 	bne	2a2c <_free_r+0x190>
    2a10:	e5142008 	ldr	r2, [r4, #-8]
    2a14:	e062c00c 	rsb	r12, r2, r12
    2a18:	e59c000c 	ldr	r0, [r12, #12]
    2a1c:	e59ce008 	ldr	lr, [r12, #8]
    2a20:	e58e000c 	str	r0, [lr, #12]
    2a24:	e580e008 	str	lr, [r0, #8]
    2a28:	e0833002 	add	r3, r3, r2
    2a2c:	e59f20c8 	ldr	r2, [pc, #200]	; 2afc <_free_r+0x260>
    2a30:	e5920000 	ldr	r0, [r2]
    2a34:	e3832001 	orr	r2, r3, #1
    2a38:	e1530000 	cmp	r3, r0
    2a3c:	e58c2004 	str	r2, [r12, #4]
    2a40:	e581c008 	str	r12, [r1, #8]
    2a44:	3affffdd 	bcc	29c0 <_free_r+0x124>
    2a48:	e59f30b0 	ldr	r3, [pc, #176]	; 2b00 <_free_r+0x264>
    2a4c:	e1a00006 	mov	r0, r6
    2a50:	e5931000 	ldr	r1, [r3]
    2a54:	ebffff50 	bl	279c <_malloc_trim_r>
    2a58:	eaffffd8 	b	29c0 <_free_r+0x124>
    2a5c:	e3832001 	orr	r2, r3, #1
    2a60:	e581c014 	str	r12, [r1, #20]
    2a64:	e581c010 	str	r12, [r1, #16]
    2a68:	e58c000c 	str	r0, [r12, #12]
    2a6c:	e58c0008 	str	r0, [r12, #8]
    2a70:	e58c2004 	str	r2, [r12, #4]
    2a74:	e78c3003 	str	r3, [r12, r3]
    2a78:	eaffffd0 	b	29c0 <_free_r+0x124>
    2a7c:	e3520014 	cmp	r2, #20
    2a80:	9282e05b 	addls	lr, r2, #91	; 0x5b
    2a84:	91a0008e 	lslls	r0, lr, #1
    2a88:	9affffbb 	bls	297c <_free_r+0xe0>
    2a8c:	e3520054 	cmp	r2, #84	; 0x54
    2a90:	8a00000a 	bhi	2ac0 <_free_r+0x224>
    2a94:	e1a0e623 	lsr	lr, r3, #12
    2a98:	e28ee06e 	add	lr, lr, #110	; 0x6e
    2a9c:	e1a0008e 	lsl	r0, lr, #1
    2aa0:	eaffffb5 	b	297c <_free_r+0xe0>
    2aa4:	e5913004 	ldr	r3, [r1, #4]
    2aa8:	e1a0e14e 	asr	lr, lr, #2
    2aac:	e3a00001 	mov	r0, #1
    2ab0:	e1830e10 	orr	r0, r3, r0, lsl lr
    2ab4:	e1a03002 	mov	r3, r2
    2ab8:	e5810004 	str	r0, [r1, #4]
    2abc:	eaffffbb 	b	29b0 <_free_r+0x114>
    2ac0:	e3520f55 	cmp	r2, #340	; 0x154
    2ac4:	91a0e7a3 	lsrls	lr, r3, #15
    2ac8:	928ee077 	addls	lr, lr, #119	; 0x77
    2acc:	91a0008e 	lslls	r0, lr, #1
    2ad0:	9affffa9 	bls	297c <_free_r+0xe0>
    2ad4:	e59f0028 	ldr	r0, [pc, #40]	; 2b04 <_free_r+0x268>
    2ad8:	e1520000 	cmp	r2, r0
    2adc:	91a0e923 	lsrls	lr, r3, #18
    2ae0:	928ee07c 	addls	lr, lr, #124	; 0x7c
    2ae4:	91a0008e 	lslls	r0, lr, #1
    2ae8:	83a000fc 	movhi	r0, #252	; 0xfc
    2aec:	83a0e07e 	movhi	lr, #126	; 0x7e
    2af0:	eaffffa1 	b	297c <_free_r+0xe0>
    2af4:	00004158 	.word	0x00004158
    2af8:	00004160 	.word	0x00004160
    2afc:	00004564 	.word	0x00004564
    2b00:	0000458c 	.word	0x0000458c
    2b04:	00000554 	.word	0x00000554

00002b08 <_fwalk>:
    2b08:	e92d41f0 	push	{r4, r5, r6, r7, r8, lr}
    2b0c:	e2906e2e 	adds	r6, r0, #736	; 0x2e0
    2b10:	e1a08001 	mov	r8, r1
    2b14:	0a000018 	beq	2b7c <_fwalk+0x74>
    2b18:	e3a07000 	mov	r7, #0
    2b1c:	e5965004 	ldr	r5, [r6, #4]
    2b20:	e2555001 	subs	r5, r5, #1
    2b24:	e5964008 	ldr	r4, [r6, #8]
    2b28:	4a00000d 	bmi	2b64 <_fwalk+0x5c>
    2b2c:	e1d430bc 	ldrh	r3, [r4, #12]
    2b30:	e3530001 	cmp	r3, #1
    2b34:	e2455001 	sub	r5, r5, #1
    2b38:	9a000006 	bls	2b58 <_fwalk+0x50>
    2b3c:	e1d430fe 	ldrsh	r3, [r4, #14]
    2b40:	e3730001 	cmn	r3, #1
    2b44:	e1a00004 	mov	r0, r4
    2b48:	0a000002 	beq	2b58 <_fwalk+0x50>
    2b4c:	e1a0e00f 	mov	lr, pc
    2b50:	e12fff18 	bx	r8
    2b54:	e1877000 	orr	r7, r7, r0
    2b58:	e3750001 	cmn	r5, #1
    2b5c:	e2844068 	add	r4, r4, #104	; 0x68
    2b60:	1afffff1 	bne	2b2c <_fwalk+0x24>
    2b64:	e5966000 	ldr	r6, [r6]
    2b68:	e3560000 	cmp	r6, #0
    2b6c:	1affffea 	bne	2b1c <_fwalk+0x14>
    2b70:	e1a00007 	mov	r0, r7
    2b74:	e8bd41f0 	pop	{r4, r5, r6, r7, r8, lr}
    2b78:	e12fff1e 	bx	lr
    2b7c:	e1a07006 	mov	r7, r6
    2b80:	e1a00007 	mov	r0, r7
    2b84:	e8bd41f0 	pop	{r4, r5, r6, r7, r8, lr}
    2b88:	e12fff1e 	bx	lr

00002b8c <_fwalk_reent>:
    2b8c:	e92d43f8 	push	{r3, r4, r5, r6, r7, r8, r9, lr}
    2b90:	e2906e2e 	adds	r6, r0, #736	; 0x2e0
    2b94:	e1a08000 	mov	r8, r0
    2b98:	e1a09001 	mov	r9, r1
    2b9c:	0a000019 	beq	2c08 <_fwalk_reent+0x7c>
    2ba0:	e3a07000 	mov	r7, #0
    2ba4:	e5965004 	ldr	r5, [r6, #4]
    2ba8:	e2555001 	subs	r5, r5, #1
    2bac:	e5964008 	ldr	r4, [r6, #8]
    2bb0:	4a00000e 	bmi	2bf0 <_fwalk_reent+0x64>
    2bb4:	e1d430bc 	ldrh	r3, [r4, #12]
    2bb8:	e3530001 	cmp	r3, #1
    2bbc:	e2455001 	sub	r5, r5, #1
    2bc0:	9a000007 	bls	2be4 <_fwalk_reent+0x58>
    2bc4:	e1d430fe 	ldrsh	r3, [r4, #14]
    2bc8:	e3730001 	cmn	r3, #1
    2bcc:	e1a01004 	mov	r1, r4
    2bd0:	e1a00008 	mov	r0, r8
    2bd4:	0a000002 	beq	2be4 <_fwalk_reent+0x58>
    2bd8:	e1a0e00f 	mov	lr, pc
    2bdc:	e12fff19 	bx	r9
    2be0:	e1877000 	orr	r7, r7, r0
    2be4:	e3750001 	cmn	r5, #1
    2be8:	e2844068 	add	r4, r4, #104	; 0x68
    2bec:	1afffff0 	bne	2bb4 <_fwalk_reent+0x28>
    2bf0:	e5966000 	ldr	r6, [r6]
    2bf4:	e3560000 	cmp	r6, #0
    2bf8:	1affffe9 	bne	2ba4 <_fwalk_reent+0x18>
    2bfc:	e1a00007 	mov	r0, r7
    2c00:	e8bd43f8 	pop	{r3, r4, r5, r6, r7, r8, r9, lr}
    2c04:	e12fff1e 	bx	lr
    2c08:	e1a07006 	mov	r7, r6
    2c0c:	e1a00007 	mov	r0, r7
    2c10:	e8bd43f8 	pop	{r3, r4, r5, r6, r7, r8, r9, lr}
    2c14:	e12fff1e 	bx	lr

00002c18 <__smakebuf_r>:
    2c18:	e92d40f0 	push	{r4, r5, r6, r7, lr}
    2c1c:	e1d130bc 	ldrh	r3, [r1, #12]
    2c20:	e3130002 	tst	r3, #2
    2c24:	e24dd044 	sub	sp, sp, #68	; 0x44
    2c28:	e1a04001 	mov	r4, r1
    2c2c:	e1a02003 	mov	r2, r3
    2c30:	e1a05000 	mov	r5, r0
    2c34:	1a00002c 	bne	2cec <__smakebuf_r+0xd4>
    2c38:	e1d110fe 	ldrsh	r1, [r1, #14]
    2c3c:	e3510000 	cmp	r1, #0
    2c40:	ba000011 	blt	2c8c <__smakebuf_r+0x74>
    2c44:	e28d2004 	add	r2, sp, #4
    2c48:	eb0001f3 	bl	341c <_fstat_r>
    2c4c:	e3500000 	cmp	r0, #0
    2c50:	ba00000b 	blt	2c84 <__smakebuf_r+0x6c>
    2c54:	e59d3008 	ldr	r3, [sp, #8]
    2c58:	e2033a0f 	and	r3, r3, #61440	; 0xf000
    2c5c:	e2532a02 	subs	r2, r3, #8192	; 0x2000
    2c60:	e2727000 	rsbs	r7, r2, #0
    2c64:	e0b77002 	adcs	r7, r7, r2
    2c68:	e3530902 	cmp	r3, #32768	; 0x8000
    2c6c:	0a000026 	beq	2d0c <__smakebuf_r+0xf4>
    2c70:	e1d430bc 	ldrh	r3, [r4, #12]
    2c74:	e3833b02 	orr	r3, r3, #2048	; 0x800
    2c78:	e1c430bc 	strh	r3, [r4, #12]
    2c7c:	e3a06b01 	mov	r6, #1024	; 0x400
    2c80:	ea000007 	b	2ca4 <__smakebuf_r+0x8c>
    2c84:	e1d430bc 	ldrh	r3, [r4, #12]
    2c88:	e1a02003 	mov	r2, r3
    2c8c:	e3833b02 	orr	r3, r3, #2048	; 0x800
    2c90:	e3120080 	tst	r2, #128	; 0x80
    2c94:	e1c430bc 	strh	r3, [r4, #12]
    2c98:	13a06040 	movne	r6, #64	; 0x40
    2c9c:	03a06b01 	moveq	r6, #1024	; 0x400
    2ca0:	e3a07000 	mov	r7, #0
    2ca4:	e1a00005 	mov	r0, r5
    2ca8:	e1a01006 	mov	r1, r6
    2cac:	ebfff811 	bl	cf8 <_malloc_r>
    2cb0:	e3500000 	cmp	r0, #0
    2cb4:	e1d430bc 	ldrh	r3, [r4, #12]
    2cb8:	0a000027 	beq	2d5c <__smakebuf_r+0x144>
    2cbc:	e59f20c0 	ldr	r2, [pc, #192]	; 2d84 <__smakebuf_r+0x16c>
    2cc0:	e3833080 	orr	r3, r3, #128	; 0x80
    2cc4:	e3570000 	cmp	r7, #0
    2cc8:	e585203c 	str	r2, [r5, #60]	; 0x3c
    2ccc:	e1c430bc 	strh	r3, [r4, #12]
    2cd0:	e5840000 	str	r0, [r4]
    2cd4:	e5840010 	str	r0, [r4, #16]
    2cd8:	e5846014 	str	r6, [r4, #20]
    2cdc:	1a000014 	bne	2d34 <__smakebuf_r+0x11c>
    2ce0:	e28dd044 	add	sp, sp, #68	; 0x44
    2ce4:	e8bd40f0 	pop	{r4, r5, r6, r7, lr}
    2ce8:	e12fff1e 	bx	lr
    2cec:	e2813043 	add	r3, r1, #67	; 0x43
    2cf0:	e3a02001 	mov	r2, #1
    2cf4:	e5813000 	str	r3, [r1]
    2cf8:	e5813010 	str	r3, [r1, #16]
    2cfc:	e5812014 	str	r2, [r1, #20]
    2d00:	e28dd044 	add	sp, sp, #68	; 0x44
    2d04:	e8bd40f0 	pop	{r4, r5, r6, r7, lr}
    2d08:	e12fff1e 	bx	lr
    2d0c:	e59f3074 	ldr	r3, [pc, #116]	; 2d88 <__smakebuf_r+0x170>
    2d10:	e5942028 	ldr	r2, [r4, #40]	; 0x28
    2d14:	e1520003 	cmp	r2, r3
    2d18:	1affffd4 	bne	2c70 <__smakebuf_r+0x58>
    2d1c:	e1d430bc 	ldrh	r3, [r4, #12]
    2d20:	e3a06b01 	mov	r6, #1024	; 0x400
    2d24:	e1833006 	orr	r3, r3, r6
    2d28:	e1c430bc 	strh	r3, [r4, #12]
    2d2c:	e584604c 	str	r6, [r4, #76]	; 0x4c
    2d30:	eaffffdb 	b	2ca4 <__smakebuf_r+0x8c>
    2d34:	e1a00005 	mov	r0, r5
    2d38:	e1d410fe 	ldrsh	r1, [r4, #14]
    2d3c:	eb0001c6 	bl	345c <_isatty_r>
    2d40:	e3500000 	cmp	r0, #0
    2d44:	11d430bc 	ldrhne	r3, [r4, #12]
    2d48:	13833001 	orrne	r3, r3, #1
    2d4c:	11c430bc 	strhne	r3, [r4, #12]
    2d50:	e28dd044 	add	sp, sp, #68	; 0x44
    2d54:	e8bd40f0 	pop	{r4, r5, r6, r7, lr}
    2d58:	e12fff1e 	bx	lr
    2d5c:	e3130c02 	tst	r3, #512	; 0x200
    2d60:	1affffde 	bne	2ce0 <__smakebuf_r+0xc8>
    2d64:	e2842043 	add	r2, r4, #67	; 0x43
    2d68:	e3833002 	orr	r3, r3, #2
    2d6c:	e3a01001 	mov	r1, #1
    2d70:	e1c430bc 	strh	r3, [r4, #12]
    2d74:	e5842000 	str	r2, [r4]
    2d78:	e5842010 	str	r2, [r4, #16]
    2d7c:	e5841014 	str	r1, [r4, #20]
    2d80:	eaffffd6 	b	2ce0 <__smakebuf_r+0xc8>
    2d84:	00002458 	.word	0x00002458
    2d88:	00003254 	.word	0x00003254

00002d8c <memset>:
    2d8c:	e3100003 	tst	r0, #3
    2d90:	e92d0070 	push	{r4, r5, r6}
    2d94:	0a000037 	beq	2e78 <memset+0xec>
    2d98:	e3520000 	cmp	r2, #0
    2d9c:	e2422001 	sub	r2, r2, #1
    2da0:	0a000032 	beq	2e70 <memset+0xe4>
    2da4:	e201c0ff 	and	r12, r1, #255	; 0xff
    2da8:	e1a03000 	mov	r3, r0
    2dac:	ea000002 	b	2dbc <memset+0x30>
    2db0:	e3520000 	cmp	r2, #0
    2db4:	e2422001 	sub	r2, r2, #1
    2db8:	0a00002c 	beq	2e70 <memset+0xe4>
    2dbc:	e4c3c001 	strb	r12, [r3], #1
    2dc0:	e3130003 	tst	r3, #3
    2dc4:	1afffff9 	bne	2db0 <memset+0x24>
    2dc8:	e3520003 	cmp	r2, #3
    2dcc:	9a000020 	bls	2e54 <memset+0xc8>
    2dd0:	e20140ff 	and	r4, r1, #255	; 0xff
    2dd4:	e1844404 	orr	r4, r4, r4, lsl #8
    2dd8:	e352000f 	cmp	r2, #15
    2ddc:	e1844804 	orr	r4, r4, r4, lsl #16
    2de0:	9a000010 	bls	2e28 <memset+0x9c>
    2de4:	e2426010 	sub	r6, r2, #16
    2de8:	e1a06226 	lsr	r6, r6, #4
    2dec:	e2835010 	add	r5, r3, #16
    2df0:	e0855206 	add	r5, r5, r6, lsl #4
    2df4:	e1a0c003 	mov	r12, r3
    2df8:	e58c4000 	str	r4, [r12]
    2dfc:	e58c4004 	str	r4, [r12, #4]
    2e00:	e58c4008 	str	r4, [r12, #8]
    2e04:	e58c400c 	str	r4, [r12, #12]
    2e08:	e28cc010 	add	r12, r12, #16
    2e0c:	e15c0005 	cmp	r12, r5
    2e10:	1afffff8 	bne	2df8 <memset+0x6c>
    2e14:	e202200f 	and	r2, r2, #15
    2e18:	e2866001 	add	r6, r6, #1
    2e1c:	e3520003 	cmp	r2, #3
    2e20:	e0833206 	add	r3, r3, r6, lsl #4
    2e24:	9a00000a 	bls	2e54 <memset+0xc8>
    2e28:	e1a05003 	mov	r5, r3
    2e2c:	e1a0c002 	mov	r12, r2
    2e30:	e24cc004 	sub	r12, r12, #4
    2e34:	e35c0003 	cmp	r12, #3
    2e38:	e4854004 	str	r4, [r5], #4
    2e3c:	8afffffb 	bhi	2e30 <memset+0xa4>
    2e40:	e242c004 	sub	r12, r2, #4
    2e44:	e3ccc003 	bic	r12, r12, #3
    2e48:	e28cc004 	add	r12, r12, #4
    2e4c:	e083300c 	add	r3, r3, r12
    2e50:	e2022003 	and	r2, r2, #3
    2e54:	e3520000 	cmp	r2, #0
    2e58:	120110ff 	andne	r1, r1, #255	; 0xff
    2e5c:	10832002 	addne	r2, r3, r2
    2e60:	0a000002 	beq	2e70 <memset+0xe4>
    2e64:	e4c31001 	strb	r1, [r3], #1
    2e68:	e1530002 	cmp	r3, r2
    2e6c:	1afffffc 	bne	2e64 <memset+0xd8>
    2e70:	e8bd0070 	pop	{r4, r5, r6}
    2e74:	e12fff1e 	bx	lr
    2e78:	e1a03000 	mov	r3, r0
    2e7c:	eaffffd1 	b	2dc8 <memset+0x3c>

00002e80 <cleanup_glue>:
    2e80:	e92d4038 	push	{r3, r4, r5, lr}
    2e84:	e1a04001 	mov	r4, r1
    2e88:	e5911000 	ldr	r1, [r1]
    2e8c:	e3510000 	cmp	r1, #0
    2e90:	e1a05000 	mov	r5, r0
    2e94:	1bfffff9 	blne	2e80 <cleanup_glue>
    2e98:	e1a00005 	mov	r0, r5
    2e9c:	e1a01004 	mov	r1, r4
    2ea0:	ebfffe7d 	bl	289c <_free_r>
    2ea4:	e8bd4038 	pop	{r3, r4, r5, lr}
    2ea8:	e12fff1e 	bx	lr

00002eac <_reclaim_reent>:
    2eac:	e59f30fc 	ldr	r3, [pc, #252]	; 2fb0 <_reclaim_reent+0x104>
    2eb0:	e5933000 	ldr	r3, [r3]
    2eb4:	e1500003 	cmp	r0, r3
    2eb8:	e92d4070 	push	{r4, r5, r6, lr}
    2ebc:	e1a05000 	mov	r5, r0
    2ec0:	0a00002e 	beq	2f80 <_reclaim_reent+0xd4>
    2ec4:	e590204c 	ldr	r2, [r0, #76]	; 0x4c
    2ec8:	e3520000 	cmp	r2, #0
    2ecc:	0a000013 	beq	2f20 <_reclaim_reent+0x74>
    2ed0:	e3a03000 	mov	r3, #0
    2ed4:	e1a06003 	mov	r6, r3
    2ed8:	e7921103 	ldr	r1, [r2, r3, lsl #2]
    2edc:	e3510000 	cmp	r1, #0
    2ee0:	1a000001 	bne	2eec <_reclaim_reent+0x40>
    2ee4:	ea000006 	b	2f04 <_reclaim_reent+0x58>
    2ee8:	e1a01004 	mov	r1, r4
    2eec:	e5914000 	ldr	r4, [r1]
    2ef0:	e1a00005 	mov	r0, r5
    2ef4:	ebfffe68 	bl	289c <_free_r>
    2ef8:	e3540000 	cmp	r4, #0
    2efc:	1afffff9 	bne	2ee8 <_reclaim_reent+0x3c>
    2f00:	e595204c 	ldr	r2, [r5, #76]	; 0x4c
    2f04:	e2866001 	add	r6, r6, #1
    2f08:	e3560020 	cmp	r6, #32
    2f0c:	e1a03006 	mov	r3, r6
    2f10:	1afffff0 	bne	2ed8 <_reclaim_reent+0x2c>
    2f14:	e1a01002 	mov	r1, r2
    2f18:	e1a00005 	mov	r0, r5
    2f1c:	ebfffe5e 	bl	289c <_free_r>
    2f20:	e5951040 	ldr	r1, [r5, #64]	; 0x40
    2f24:	e3510000 	cmp	r1, #0
    2f28:	11a00005 	movne	r0, r5
    2f2c:	1bfffe5a 	blne	289c <_free_r>
    2f30:	e5951148 	ldr	r1, [r5, #328]	; 0x148
    2f34:	e3510000 	cmp	r1, #0
    2f38:	0a000009 	beq	2f64 <_reclaim_reent+0xb8>
    2f3c:	e2856f53 	add	r6, r5, #332	; 0x14c
    2f40:	e1510006 	cmp	r1, r6
    2f44:	1a000001 	bne	2f50 <_reclaim_reent+0xa4>
    2f48:	ea000005 	b	2f64 <_reclaim_reent+0xb8>
    2f4c:	e1a01004 	mov	r1, r4
    2f50:	e5914000 	ldr	r4, [r1]
    2f54:	e1a00005 	mov	r0, r5
    2f58:	ebfffe4f 	bl	289c <_free_r>
    2f5c:	e1560004 	cmp	r6, r4
    2f60:	1afffff9 	bne	2f4c <_reclaim_reent+0xa0>
    2f64:	e5951054 	ldr	r1, [r5, #84]	; 0x54
    2f68:	e3510000 	cmp	r1, #0
    2f6c:	11a00005 	movne	r0, r5
    2f70:	1bfffe49 	blne	289c <_free_r>
    2f74:	e5953038 	ldr	r3, [r5, #56]	; 0x38
    2f78:	e3530000 	cmp	r3, #0
    2f7c:	1a000001 	bne	2f88 <_reclaim_reent+0xdc>
    2f80:	e8bd4070 	pop	{r4, r5, r6, lr}
    2f84:	e12fff1e 	bx	lr
    2f88:	e1a00005 	mov	r0, r5
    2f8c:	e595c03c 	ldr	r12, [r5, #60]	; 0x3c
    2f90:	e1a0e00f 	mov	lr, pc
    2f94:	e12fff1c 	bx	r12
    2f98:	e59512e0 	ldr	r1, [r5, #736]	; 0x2e0
    2f9c:	e3510000 	cmp	r1, #0
    2fa0:	0afffff6 	beq	2f80 <_reclaim_reent+0xd4>
    2fa4:	e1a00005 	mov	r0, r5
    2fa8:	e8bd4070 	pop	{r4, r5, r6, lr}
    2fac:	eaffffb3 	b	2e80 <cleanup_glue>
    2fb0:	00003d28 	.word	0x00003d28

00002fb4 <lflush>:
    2fb4:	e92d4008 	push	{r3, lr}
    2fb8:	e1d030bc 	ldrh	r3, [r0, #12]
    2fbc:	e2033009 	and	r3, r3, #9
    2fc0:	e3530009 	cmp	r3, #9
    2fc4:	13a00000 	movne	r0, #0
    2fc8:	0a000001 	beq	2fd4 <lflush+0x20>
    2fcc:	e8bd4008 	pop	{r3, lr}
    2fd0:	e12fff1e 	bx	lr
    2fd4:	ebfffd0c 	bl	240c <fflush>
    2fd8:	e8bd4008 	pop	{r3, lr}
    2fdc:	e12fff1e 	bx	lr

00002fe0 <__srefill_r>:
    2fe0:	e92d40f8 	push	{r3, r4, r5, r6, r7, lr}
    2fe4:	e2505000 	subs	r5, r0, #0
    2fe8:	e1a04001 	mov	r4, r1
    2fec:	0a000002 	beq	2ffc <__srefill_r+0x1c>
    2ff0:	e5953038 	ldr	r3, [r5, #56]	; 0x38
    2ff4:	e3530000 	cmp	r3, #0
    2ff8:	0a00003e 	beq	30f8 <__srefill_r+0x118>
    2ffc:	e1d420bc 	ldrh	r2, [r4, #12]
    3000:	e3120a02 	tst	r2, #8192	; 0x2000
    3004:	e1a03002 	mov	r3, r2
    3008:	1a000005 	bne	3024 <__srefill_r+0x44>
    300c:	e5943064 	ldr	r3, [r4, #100]	; 0x64
    3010:	e3822a02 	orr	r2, r2, #8192	; 0x2000
    3014:	e3c33a02 	bic	r3, r3, #8192	; 0x2000
    3018:	e1c420bc 	strh	r2, [r4, #12]
    301c:	e5843064 	str	r3, [r4, #100]	; 0x64
    3020:	e1a03002 	mov	r3, r2
    3024:	e3a01000 	mov	r1, #0
    3028:	e3130020 	tst	r3, #32
    302c:	e5841004 	str	r1, [r4, #4]
    3030:	1a00002d 	bne	30ec <__srefill_r+0x10c>
    3034:	e3130004 	tst	r3, #4
    3038:	0a000020 	beq	30c0 <__srefill_r+0xe0>
    303c:	e5941030 	ldr	r1, [r4, #48]	; 0x30
    3040:	e3510000 	cmp	r1, #0
    3044:	0a000009 	beq	3070 <__srefill_r+0x90>
    3048:	e2843040 	add	r3, r4, #64	; 0x40
    304c:	e1510003 	cmp	r1, r3
    3050:	11a00005 	movne	r0, r5
    3054:	1bfffe10 	blne	289c <_free_r>
    3058:	e594303c 	ldr	r3, [r4, #60]	; 0x3c
    305c:	e3a00000 	mov	r0, #0
    3060:	e1530000 	cmp	r3, r0
    3064:	e5843004 	str	r3, [r4, #4]
    3068:	e5840030 	str	r0, [r4, #48]	; 0x30
    306c:	1a000039 	bne	3158 <__srefill_r+0x178>
    3070:	e5943010 	ldr	r3, [r4, #16]
    3074:	e3530000 	cmp	r3, #0
    3078:	0a000044 	beq	3190 <__srefill_r+0x1b0>
    307c:	e1d460bc 	ldrh	r6, [r4, #12]
    3080:	e3160003 	tst	r6, #3
    3084:	1a00001d 	bne	3100 <__srefill_r+0x120>
    3088:	e5942010 	ldr	r2, [r4, #16]
    308c:	e1a00005 	mov	r0, r5
    3090:	e5842000 	str	r2, [r4]
    3094:	e594101c 	ldr	r1, [r4, #28]
    3098:	e5943014 	ldr	r3, [r4, #20]
    309c:	e594c020 	ldr	r12, [r4, #32]
    30a0:	e1a0e00f 	mov	lr, pc
    30a4:	e12fff1c 	bx	r12
    30a8:	e3500000 	cmp	r0, #0
    30ac:	e5840004 	str	r0, [r4, #4]
    30b0:	c3a00000 	movgt	r0, #0
    30b4:	da000008 	ble	30dc <__srefill_r+0xfc>
    30b8:	e8bd40f8 	pop	{r3, r4, r5, r6, r7, lr}
    30bc:	e12fff1e 	bx	lr
    30c0:	e3130010 	tst	r3, #16
    30c4:	0a000035 	beq	31a0 <__srefill_r+0x1c0>
    30c8:	e3130008 	tst	r3, #8
    30cc:	1a000025 	bne	3168 <__srefill_r+0x188>
    30d0:	e3822004 	orr	r2, r2, #4
    30d4:	e1c420bc 	strh	r2, [r4, #12]
    30d8:	eaffffe4 	b	3070 <__srefill_r+0x90>
    30dc:	1a000015 	bne	3138 <__srefill_r+0x158>
    30e0:	e1d430bc 	ldrh	r3, [r4, #12]
    30e4:	e3833020 	orr	r3, r3, #32
    30e8:	e1c430bc 	strh	r3, [r4, #12]
    30ec:	e3e00000 	mvn	r0, #0
    30f0:	e8bd40f8 	pop	{r3, r4, r5, r6, r7, lr}
    30f4:	e12fff1e 	bx	lr
    30f8:	ebfffcf9 	bl	24e4 <__sinit>
    30fc:	eaffffbe 	b	2ffc <__srefill_r+0x1c>
    3100:	e59f20b0 	ldr	r2, [pc, #176]	; 31b8 <__srefill_r+0x1d8>
    3104:	e3a03001 	mov	r3, #1
    3108:	e5920000 	ldr	r0, [r2]
    310c:	e1c430bc 	strh	r3, [r4, #12]
    3110:	e59f10a4 	ldr	r1, [pc, #164]	; 31bc <__srefill_r+0x1dc>
    3114:	e2067009 	and	r7, r6, #9
    3118:	ebfffe7a 	bl	2b08 <_fwalk>
    311c:	e3570009 	cmp	r7, #9
    3120:	e1c460bc 	strh	r6, [r4, #12]
    3124:	1affffd7 	bne	3088 <__srefill_r+0xa8>
    3128:	e1a00005 	mov	r0, r5
    312c:	e1a01004 	mov	r1, r4
    3130:	ebfffc0f 	bl	2174 <__sflush_r>
    3134:	eaffffd3 	b	3088 <__srefill_r+0xa8>
    3138:	e1d420bc 	ldrh	r2, [r4, #12]
    313c:	e3a03000 	mov	r3, #0
    3140:	e3822040 	orr	r2, r2, #64	; 0x40
    3144:	e1c420bc 	strh	r2, [r4, #12]
    3148:	e5843004 	str	r3, [r4, #4]
    314c:	e3e00000 	mvn	r0, #0
    3150:	e8bd40f8 	pop	{r3, r4, r5, r6, r7, lr}
    3154:	e12fff1e 	bx	lr
    3158:	e5943038 	ldr	r3, [r4, #56]	; 0x38
    315c:	e5843000 	str	r3, [r4]
    3160:	e8bd40f8 	pop	{r3, r4, r5, r6, r7, lr}
    3164:	e12fff1e 	bx	lr
    3168:	e1a00005 	mov	r0, r5
    316c:	e1a01004 	mov	r1, r4
    3170:	ebfffc90 	bl	23b8 <_fflush_r>
    3174:	e3500000 	cmp	r0, #0
    3178:	1affffdb 	bne	30ec <__srefill_r+0x10c>
    317c:	e1d420bc 	ldrh	r2, [r4, #12]
    3180:	e5840008 	str	r0, [r4, #8]
    3184:	e5840018 	str	r0, [r4, #24]
    3188:	e3c22008 	bic	r2, r2, #8
    318c:	eaffffcf 	b	30d0 <__srefill_r+0xf0>
    3190:	e1a00005 	mov	r0, r5
    3194:	e1a01004 	mov	r1, r4
    3198:	ebfffe9e 	bl	2c18 <__smakebuf_r>
    319c:	eaffffb6 	b	307c <__srefill_r+0x9c>
    31a0:	e3822040 	orr	r2, r2, #64	; 0x40
    31a4:	e3a03009 	mov	r3, #9
    31a8:	e5853000 	str	r3, [r5]
    31ac:	e3e00000 	mvn	r0, #0
    31b0:	e1c420bc 	strh	r2, [r4, #12]
    31b4:	eaffffbf 	b	30b8 <__srefill_r+0xd8>
    31b8:	00003cb8 	.word	0x00003cb8
    31bc:	00002fb4 	.word	0x00002fb4

000031c0 <__sread>:
    31c0:	e92d4010 	push	{r4, lr}
    31c4:	e1a04001 	mov	r4, r1
    31c8:	e1d110fe 	ldrsh	r1, [r1, #14]
    31cc:	eb0000c2 	bl	34dc <_read_r>
    31d0:	e3500000 	cmp	r0, #0
    31d4:	a5943050 	ldrge	r3, [r4, #80]	; 0x50
    31d8:	b1d430bc 	ldrhlt	r3, [r4, #12]
    31dc:	a0833000 	addge	r3, r3, r0
    31e0:	b3c33a01 	biclt	r3, r3, #4096	; 0x1000
    31e4:	a5843050 	strge	r3, [r4, #80]	; 0x50
    31e8:	b1c430bc 	strhlt	r3, [r4, #12]
    31ec:	e8bd4010 	pop	{r4, lr}
    31f0:	e12fff1e 	bx	lr

000031f4 <__seofread>:
    31f4:	e3a00000 	mov	r0, #0
    31f8:	e12fff1e 	bx	lr

000031fc <__swrite>:
    31fc:	e92d40f8 	push	{r3, r4, r5, r6, r7, lr}
    3200:	e1a04001 	mov	r4, r1
    3204:	e1d110bc 	ldrh	r1, [r1, #12]
    3208:	e3110c01 	tst	r1, #256	; 0x100
    320c:	e1a06002 	mov	r6, r2
    3210:	e1a05003 	mov	r5, r3
    3214:	e1a07000 	mov	r7, r0
    3218:	0a000004 	beq	3230 <__swrite+0x34>
    321c:	e1d410fe 	ldrsh	r1, [r4, #14]
    3220:	e3a02000 	mov	r2, #0
    3224:	e3a03002 	mov	r3, #2
    3228:	eb00009a 	bl	3498 <_lseek_r>
    322c:	e1d410bc 	ldrh	r1, [r4, #12]
    3230:	e3c11a01 	bic	r1, r1, #4096	; 0x1000
    3234:	e1c410bc 	strh	r1, [r4, #12]
    3238:	e1a00007 	mov	r0, r7
    323c:	e1d410fe 	ldrsh	r1, [r4, #14]
    3240:	e1a02006 	mov	r2, r6
    3244:	e1a03005 	mov	r3, r5
    3248:	eb000012 	bl	3298 <_write_r>
    324c:	e8bd40f8 	pop	{r3, r4, r5, r6, r7, lr}
    3250:	e12fff1e 	bx	lr

00003254 <__sseek>:
    3254:	e92d4010 	push	{r4, lr}
    3258:	e1a04001 	mov	r4, r1
    325c:	e1d110fe 	ldrsh	r1, [r1, #14]
    3260:	eb00008c 	bl	3498 <_lseek_r>
    3264:	e1d430bc 	ldrh	r3, [r4, #12]
    3268:	e3700001 	cmn	r0, #1
    326c:	03c33a01 	biceq	r3, r3, #4096	; 0x1000
    3270:	13833a01 	orrne	r3, r3, #4096	; 0x1000
    3274:	15840050 	strne	r0, [r4, #80]	; 0x50
    3278:	e1c430bc 	strh	r3, [r4, #12]
    327c:	e8bd4010 	pop	{r4, lr}
    3280:	e12fff1e 	bx	lr

00003284 <__sclose>:
    3284:	e92d4008 	push	{r3, lr}
    3288:	e1d110fe 	ldrsh	r1, [r1, #14]
    328c:	eb000012 	bl	32dc <_close_r>
    3290:	e8bd4008 	pop	{r3, lr}
    3294:	e12fff1e 	bx	lr

00003298 <_write_r>:
    3298:	e92d4038 	push	{r3, r4, r5, lr}
    329c:	e59f4034 	ldr	r4, [pc, #52]	; 32d8 <_write_r+0x40>
    32a0:	e3a0c000 	mov	r12, #0
    32a4:	e1a05000 	mov	r5, r0
    32a8:	e1a00001 	mov	r0, r1
    32ac:	e1a01002 	mov	r1, r2
    32b0:	e1a02003 	mov	r2, r3
    32b4:	e584c000 	str	r12, [r4]
    32b8:	eb000137 	bl	379c <_write>
    32bc:	e3700001 	cmn	r0, #1
    32c0:	1a000002 	bne	32d0 <_write_r+0x38>
    32c4:	e5943000 	ldr	r3, [r4]
    32c8:	e3530000 	cmp	r3, #0
    32cc:	15853000 	strne	r3, [r5]
    32d0:	e8bd4038 	pop	{r3, r4, r5, lr}
    32d4:	e12fff1e 	bx	lr
    32d8:	000045c0 	.word	0x000045c0

000032dc <_close_r>:
    32dc:	e92d4038 	push	{r3, r4, r5, lr}
    32e0:	e59f402c 	ldr	r4, [pc, #44]	; 3314 <_close_r+0x38>
    32e4:	e3a03000 	mov	r3, #0
    32e8:	e1a05000 	mov	r5, r0
    32ec:	e1a00001 	mov	r0, r1
    32f0:	e5843000 	str	r3, [r4]
    32f4:	eb00009c 	bl	356c <_close>
    32f8:	e3700001 	cmn	r0, #1
    32fc:	1a000002 	bne	330c <_close_r+0x30>
    3300:	e5943000 	ldr	r3, [r4]
    3304:	e3530000 	cmp	r3, #0
    3308:	15853000 	strne	r3, [r5]
    330c:	e8bd4038 	pop	{r3, r4, r5, lr}
    3310:	e12fff1e 	bx	lr
    3314:	000045c0 	.word	0x000045c0

00003318 <_fclose_r>:
    3318:	e92d4070 	push	{r4, r5, r6, lr}
    331c:	e2514000 	subs	r4, r1, #0
    3320:	e1a05000 	mov	r5, r0
    3324:	0a000007 	beq	3348 <_fclose_r+0x30>
    3328:	e3500000 	cmp	r0, #0
    332c:	0a000002 	beq	333c <_fclose_r+0x24>
    3330:	e5903038 	ldr	r3, [r0, #56]	; 0x38
    3334:	e3530000 	cmp	r3, #0
    3338:	0a00002c 	beq	33f0 <_fclose_r+0xd8>
    333c:	e1d430fc 	ldrsh	r3, [r4, #12]
    3340:	e3530000 	cmp	r3, #0
    3344:	1a000002 	bne	3354 <_fclose_r+0x3c>
    3348:	e3a00000 	mov	r0, #0
    334c:	e8bd4070 	pop	{r4, r5, r6, lr}
    3350:	e12fff1e 	bx	lr
    3354:	e1a00005 	mov	r0, r5
    3358:	e1a01004 	mov	r1, r4
    335c:	ebfffc15 	bl	23b8 <_fflush_r>
    3360:	e594302c 	ldr	r3, [r4, #44]	; 0x2c
    3364:	e3530000 	cmp	r3, #0
    3368:	e1a06000 	mov	r6, r0
    336c:	0a000005 	beq	3388 <_fclose_r+0x70>
    3370:	e1a00005 	mov	r0, r5
    3374:	e594101c 	ldr	r1, [r4, #28]
    3378:	e1a0e00f 	mov	lr, pc
    337c:	e12fff13 	bx	r3
    3380:	e3500000 	cmp	r0, #0
    3384:	b3e06000 	mvnlt	r6, #0
    3388:	e1d430bc 	ldrh	r3, [r4, #12]
    338c:	e3130080 	tst	r3, #128	; 0x80
    3390:	1a000018 	bne	33f8 <_fclose_r+0xe0>
    3394:	e5941030 	ldr	r1, [r4, #48]	; 0x30
    3398:	e3510000 	cmp	r1, #0
    339c:	0a000005 	beq	33b8 <_fclose_r+0xa0>
    33a0:	e2843040 	add	r3, r4, #64	; 0x40
    33a4:	e1510003 	cmp	r1, r3
    33a8:	11a00005 	movne	r0, r5
    33ac:	1bfffd3a 	blne	289c <_free_r>
    33b0:	e3a03000 	mov	r3, #0
    33b4:	e5843030 	str	r3, [r4, #48]	; 0x30
    33b8:	e5941044 	ldr	r1, [r4, #68]	; 0x44
    33bc:	e3510000 	cmp	r1, #0
    33c0:	0a000003 	beq	33d4 <_fclose_r+0xbc>
    33c4:	e1a00005 	mov	r0, r5
    33c8:	ebfffd33 	bl	289c <_free_r>
    33cc:	e3a03000 	mov	r3, #0
    33d0:	e5843044 	str	r3, [r4, #68]	; 0x44
    33d4:	ebfffcda 	bl	2744 <__sfp_lock_acquire>
    33d8:	e3a03000 	mov	r3, #0
    33dc:	e1c430bc 	strh	r3, [r4, #12]
    33e0:	ebfffcd8 	bl	2748 <__sfp_lock_release>
    33e4:	e1a00006 	mov	r0, r6
    33e8:	e8bd4070 	pop	{r4, r5, r6, lr}
    33ec:	e12fff1e 	bx	lr
    33f0:	ebfffc3b 	bl	24e4 <__sinit>
    33f4:	eaffffd0 	b	333c <_fclose_r+0x24>
    33f8:	e1a00005 	mov	r0, r5
    33fc:	e5941010 	ldr	r1, [r4, #16]
    3400:	ebfffd25 	bl	289c <_free_r>
    3404:	eaffffe2 	b	3394 <_fclose_r+0x7c>

00003408 <fclose>:
    3408:	e59f3008 	ldr	r3, [pc, #8]	; 3418 <fclose+0x10>
    340c:	e1a01000 	mov	r1, r0
    3410:	e5930000 	ldr	r0, [r3]
    3414:	eaffffbf 	b	3318 <_fclose_r>
    3418:	00003d28 	.word	0x00003d28

0000341c <_fstat_r>:
    341c:	e92d4038 	push	{r3, r4, r5, lr}
    3420:	e59f4030 	ldr	r4, [pc, #48]	; 3458 <_fstat_r+0x3c>
    3424:	e3a03000 	mov	r3, #0
    3428:	e1a05000 	mov	r5, r0
    342c:	e1a00001 	mov	r0, r1
    3430:	e1a01002 	mov	r1, r2
    3434:	e5843000 	str	r3, [r4]
    3438:	eb00006f 	bl	35fc <_fstat>
    343c:	e3700001 	cmn	r0, #1
    3440:	1a000002 	bne	3450 <_fstat_r+0x34>
    3444:	e5943000 	ldr	r3, [r4]
    3448:	e3530000 	cmp	r3, #0
    344c:	15853000 	strne	r3, [r5]
    3450:	e8bd4038 	pop	{r3, r4, r5, lr}
    3454:	e12fff1e 	bx	lr
    3458:	000045c0 	.word	0x000045c0

0000345c <_isatty_r>:
    345c:	e92d4038 	push	{r3, r4, r5, lr}
    3460:	e59f402c 	ldr	r4, [pc, #44]	; 3494 <_isatty_r+0x38>
    3464:	e3a03000 	mov	r3, #0
    3468:	e1a05000 	mov	r5, r0
    346c:	e1a00001 	mov	r0, r1
    3470:	e5843000 	str	r3, [r4]
    3474:	eb000078 	bl	365c <_isatty>
    3478:	e3700001 	cmn	r0, #1
    347c:	1a000002 	bne	348c <_isatty_r+0x30>
    3480:	e5943000 	ldr	r3, [r4]
    3484:	e3530000 	cmp	r3, #0
    3488:	15853000 	strne	r3, [r5]
    348c:	e8bd4038 	pop	{r3, r4, r5, lr}
    3490:	e12fff1e 	bx	lr
    3494:	000045c0 	.word	0x000045c0

00003498 <_lseek_r>:
    3498:	e92d4038 	push	{r3, r4, r5, lr}
    349c:	e59f4034 	ldr	r4, [pc, #52]	; 34d8 <_lseek_r+0x40>
    34a0:	e3a0c000 	mov	r12, #0
    34a4:	e1a05000 	mov	r5, r0
    34a8:	e1a00001 	mov	r0, r1
    34ac:	e1a01002 	mov	r1, r2
    34b0:	e1a02003 	mov	r2, r3
    34b4:	e584c000 	str	r12, [r4]
    34b8:	eb000071 	bl	3684 <_lseek>
    34bc:	e3700001 	cmn	r0, #1
    34c0:	1a000002 	bne	34d0 <_lseek_r+0x38>
    34c4:	e5943000 	ldr	r3, [r4]
    34c8:	e3530000 	cmp	r3, #0
    34cc:	15853000 	strne	r3, [r5]
    34d0:	e8bd4038 	pop	{r3, r4, r5, lr}
    34d4:	e12fff1e 	bx	lr
    34d8:	000045c0 	.word	0x000045c0

000034dc <_read_r>:
    34dc:	e92d4038 	push	{r3, r4, r5, lr}
    34e0:	e59f4034 	ldr	r4, [pc, #52]	; 351c <_read_r+0x40>
    34e4:	e3a0c000 	mov	r12, #0
    34e8:	e1a05000 	mov	r5, r0
    34ec:	e1a00001 	mov	r0, r1
    34f0:	e1a01002 	mov	r1, r2
    34f4:	e1a02003 	mov	r2, r3
    34f8:	e584c000 	str	r12, [r4]
    34fc:	eb00008e 	bl	373c <_read>
    3500:	e3700001 	cmn	r0, #1
    3504:	1a000002 	bne	3514 <_read_r+0x38>
    3508:	e5943000 	ldr	r3, [r4]
    350c:	e3530000 	cmp	r3, #0
    3510:	15853000 	strne	r3, [r5]
    3514:	e8bd4038 	pop	{r3, r4, r5, lr}
    3518:	e12fff1e 	bx	lr
    351c:	000045c0 	.word	0x000045c0

00003520 <__cs3_premain>:
    3520:	e92d4008 	push	{r3, lr}
    3524:	eb0001b9 	bl	3c10 <__libc_init_array>
    3528:	e59f3030 	ldr	r3, [pc, #48]	; 3560 <__cs3_premain+0x40>
    352c:	e3530000 	cmp	r3, #0
    3530:	15930000 	ldrne	r0, [r3]
    3534:	01a00003 	moveq	r0, r3
    3538:	e59f3024 	ldr	r3, [pc, #36]	; 3564 <__cs3_premain+0x44>
    353c:	e3530000 	cmp	r3, #0
    3540:	15931000 	ldrne	r1, [r3]
    3544:	01a01003 	moveq	r1, r3
    3548:	e3a02000 	mov	r2, #0
    354c:	ebfff340 	bl	254 <main>
    3550:	e59f3010 	ldr	r3, [pc, #16]	; 3568 <__cs3_premain+0x48>
    3554:	e3530000 	cmp	r3, #0
    3558:	1bfff360 	blne	2e0 <exit>
    355c:	eafffffe 	b	355c <__cs3_premain+0x3c>
    3560:	0000466c 	.word	0x0000466c
    3564:	00004668 	.word	0x00004668
    3568:	000002e0 	.word	0x000002e0

0000356c <_close>:
    356c:	e92d4038 	push	{r3, r4, r5, lr}
    3570:	e1a05000 	mov	r5, r0
    3574:	eb0000ed 	bl	3930 <__cs3_openslot>
    3578:	e2504000 	subs	r4, r0, #0
    357c:	0a000016 	beq	35dc <_close+0x70>
    3580:	e2453001 	sub	r3, r5, #1
    3584:	e3530001 	cmp	r3, #1
    3588:	9a000008 	bls	35b0 <_close+0x44>
    358c:	e3a00002 	mov	r0, #2
    3590:	e1a01004 	mov	r1, r4
    3594:	ef123456 	svc	0x00123456
    3598:	e3500000 	cmp	r0, #0
    359c:	03e03000 	mvneq	r3, #0
    35a0:	05843000 	streq	r3, [r4]
    35a4:	eb000114 	bl	39fc <__cs3_checkerror>
    35a8:	e8bd4038 	pop	{r3, r4, r5, lr}
    35ac:	e12fff1e 	bx	lr
    35b0:	e3550001 	cmp	r5, #1
    35b4:	13e03007 	mvnne	r3, #7
    35b8:	03a03008 	moveq	r3, #8
    35bc:	e7943003 	ldr	r3, [r4, r3]
    35c0:	e5942000 	ldr	r2, [r4]
    35c4:	e1520003 	cmp	r2, r3
    35c8:	03e03000 	mvneq	r3, #0
    35cc:	05843000 	streq	r3, [r4]
    35d0:	03a00000 	moveq	r0, #0
    35d4:	1affffec 	bne	358c <_close+0x20>
    35d8:	eafffff2 	b	35a8 <_close+0x3c>
    35dc:	e3e00000 	mvn	r0, #0
    35e0:	eafffff0 	b	35a8 <_close+0x3c>

000035e4 <_exit>:
    35e4:	e52de004 	push	{lr}		; (str lr, [sp, #-4]!)
    35e8:	e3a00018 	mov	r0, #24
    35ec:	e59f1004 	ldr	r1, [pc, #4]	; 35f8 <_exit+0x14>
    35f0:	ef123456 	svc	0x00123456
    35f4:	eafffffe 	b	35f4 <_exit+0x10>
    35f8:	00020026 	.word	0x00020026

000035fc <_fstat>:
    35fc:	e92d4038 	push	{r3, r4, r5, lr}
    3600:	e1a04001 	mov	r4, r1
    3604:	eb0000c9 	bl	3930 <__cs3_openslot>
    3608:	e2505000 	subs	r5, r0, #0
    360c:	0a000010 	beq	3654 <_fstat+0x58>
    3610:	e1a00004 	mov	r0, r4
    3614:	e3a01000 	mov	r1, #0
    3618:	e3a0203c 	mov	r2, #60	; 0x3c
    361c:	ebfffdda 	bl	2d8c <memset>
    3620:	e3a02a02 	mov	r2, #8192	; 0x2000
    3624:	e3a03b01 	mov	r3, #1024	; 0x400
    3628:	e1a01005 	mov	r1, r5
    362c:	e5842004 	str	r2, [r4, #4]
    3630:	e584302c 	str	r3, [r4, #44]	; 0x2c
    3634:	e3a0000c 	mov	r0, #12
    3638:	ef123456 	svc	0x00123456
    363c:	e3700001 	cmn	r0, #1
    3640:	15840010 	strne	r0, [r4, #16]
    3644:	13a00000 	movne	r0, #0
    3648:	eb0000eb 	bl	39fc <__cs3_checkerror>
    364c:	e8bd4038 	pop	{r3, r4, r5, lr}
    3650:	e12fff1e 	bx	lr
    3654:	e3e00000 	mvn	r0, #0
    3658:	eafffffb 	b	364c <_fstat+0x50>

0000365c <_isatty>:
    365c:	e92d4008 	push	{r3, lr}
    3660:	eb0000b2 	bl	3930 <__cs3_openslot>
    3664:	e2501000 	subs	r1, r0, #0
    3668:	01a00001 	moveq	r0, r1
    366c:	0a000002 	beq	367c <_isatty+0x20>
    3670:	e3a00009 	mov	r0, #9
    3674:	ef123456 	svc	0x00123456
    3678:	eb0000df 	bl	39fc <__cs3_checkerror>
    367c:	e8bd4008 	pop	{r3, lr}
    3680:	e12fff1e 	bx	lr

00003684 <_lseek>:
    3684:	e92d4070 	push	{r4, r5, r6, lr}
    3688:	e24dd008 	sub	sp, sp, #8
    368c:	e1a04001 	mov	r4, r1
    3690:	e1a05002 	mov	r5, r2
    3694:	eb0000a5 	bl	3930 <__cs3_openslot>
    3698:	e2506000 	subs	r6, r0, #0
    369c:	0a000024 	beq	3734 <_lseek+0xb0>
    36a0:	e3550001 	cmp	r5, #1
    36a4:	0a00001f 	beq	3728 <_lseek+0xa4>
    36a8:	e3550002 	cmp	r5, #2
    36ac:	0a000008 	beq	36d4 <_lseek+0x50>
    36b0:	e3550000 	cmp	r5, #0
    36b4:	0a00000c 	beq	36ec <_lseek+0x68>
    36b8:	eb000150 	bl	3c00 <__errno>
    36bc:	e3a03016 	mov	r3, #22
    36c0:	e5803000 	str	r3, [r0]
    36c4:	e3e00000 	mvn	r0, #0
    36c8:	e28dd008 	add	sp, sp, #8
    36cc:	e8bd4070 	pop	{r4, r5, r6, lr}
    36d0:	e12fff1e 	bx	lr
    36d4:	e3a0000c 	mov	r0, #12
    36d8:	e1a01006 	mov	r1, r6
    36dc:	ef123456 	svc	0x00123456
    36e0:	e3700001 	cmn	r0, #1
    36e4:	10844000 	addne	r4, r4, r0
    36e8:	0a00000a 	beq	3718 <_lseek+0x94>
    36ec:	e5963000 	ldr	r3, [r6]
    36f0:	e3540000 	cmp	r4, #0
    36f4:	e88d0018 	stm	sp, {r3, r4}
    36f8:	baffffee 	blt	36b8 <_lseek+0x34>
    36fc:	e3a0000a 	mov	r0, #10
    3700:	e1a0100d 	mov	r1, sp
    3704:	ef123456 	svc	0x00123456
    3708:	e3700001 	cmn	r0, #1
    370c:	01a04000 	moveq	r4, r0
    3710:	15864004 	strne	r4, [r6, #4]
    3714:	e1a00004 	mov	r0, r4
    3718:	eb0000b7 	bl	39fc <__cs3_checkerror>
    371c:	e28dd008 	add	sp, sp, #8
    3720:	e8bd4070 	pop	{r4, r5, r6, lr}
    3724:	e12fff1e 	bx	lr
    3728:	e5963004 	ldr	r3, [r6, #4]
    372c:	e0844003 	add	r4, r4, r3
    3730:	eaffffed 	b	36ec <_lseek+0x68>
    3734:	e3e00000 	mvn	r0, #0
    3738:	eaffffe2 	b	36c8 <_lseek+0x44>

0000373c <_read>:
    373c:	e92d4070 	push	{r4, r5, r6, lr}
    3740:	e24dd010 	sub	sp, sp, #16
    3744:	e1a06001 	mov	r6, r1
    3748:	e1a05002 	mov	r5, r2
    374c:	eb000077 	bl	3930 <__cs3_openslot>
    3750:	e2504000 	subs	r4, r0, #0
    3754:	0a00000e 	beq	3794 <_read+0x58>
    3758:	e5943000 	ldr	r3, [r4]
    375c:	e3a00006 	mov	r0, #6
    3760:	e98d0048 	stmib	sp, {r3, r6}
    3764:	e58d500c 	str	r5, [sp, #12]
    3768:	e28d1004 	add	r1, sp, #4
    376c:	ef123456 	svc	0x00123456
    3770:	e3700001 	cmn	r0, #1
    3774:	15943004 	ldrne	r3, [r4, #4]
    3778:	10600005 	rsbne	r0, r0, r5
    377c:	10833000 	addne	r3, r3, r0
    3780:	15843004 	strne	r3, [r4, #4]
    3784:	eb00009c 	bl	39fc <__cs3_checkerror>
    3788:	e28dd010 	add	sp, sp, #16
    378c:	e8bd4070 	pop	{r4, r5, r6, lr}
    3790:	e12fff1e 	bx	lr
    3794:	e3e00000 	mvn	r0, #0
    3798:	eafffffa 	b	3788 <_read+0x4c>

0000379c <_write>:
    379c:	e92d4070 	push	{r4, r5, r6, lr}
    37a0:	e24dd010 	sub	sp, sp, #16
    37a4:	e1a06001 	mov	r6, r1
    37a8:	e1a05002 	mov	r5, r2
    37ac:	eb00005f 	bl	3930 <__cs3_openslot>
    37b0:	e2504000 	subs	r4, r0, #0
    37b4:	0a00000e 	beq	37f4 <_write+0x58>
    37b8:	e5943000 	ldr	r3, [r4]
    37bc:	e3a00005 	mov	r0, #5
    37c0:	e98d0048 	stmib	sp, {r3, r6}
    37c4:	e58d500c 	str	r5, [sp, #12]
    37c8:	e28d1004 	add	r1, sp, #4
    37cc:	ef123456 	svc	0x00123456
    37d0:	e3700001 	cmn	r0, #1
    37d4:	15943004 	ldrne	r3, [r4, #4]
    37d8:	10600005 	rsbne	r0, r0, r5
    37dc:	10833000 	addne	r3, r3, r0
    37e0:	15843004 	strne	r3, [r4, #4]
    37e4:	eb000084 	bl	39fc <__cs3_checkerror>
    37e8:	e28dd010 	add	sp, sp, #16
    37ec:	e8bd4070 	pop	{r4, r5, r6, lr}
    37f0:	e12fff1e 	bx	lr
    37f4:	e3e00000 	mvn	r0, #0
    37f8:	eafffffa 	b	37e8 <_write+0x4c>

000037fc <_sbrk>:
    37fc:	e59f1060 	ldr	r1, [pc, #96]	; 3864 <_sbrk+0x68>
    3800:	e59f2060 	ldr	r2, [pc, #96]	; 3868 <_sbrk+0x6c>
    3804:	e92d4008 	push	{r3, lr}
    3808:	e5913000 	ldr	r3, [r1]
    380c:	e5922000 	ldr	r2, [r2]
    3810:	e0830000 	add	r0, r3, r0
    3814:	e3520000 	cmp	r2, #0
    3818:	11520000 	cmpne	r2, r0
    381c:	3a00000a 	bcc	384c <_sbrk+0x50>
    3820:	e1a0200d 	mov	r2, sp
    3824:	e1530002 	cmp	r3, r2
    3828:	9a000003 	bls	383c <_sbrk+0x40>
    382c:	e5810000 	str	r0, [r1]
    3830:	e1a00003 	mov	r0, r3
    3834:	e8bd4008 	pop	{r3, lr}
    3838:	e12fff1e 	bx	lr
    383c:	e2802c01 	add	r2, r0, #256	; 0x100
    3840:	e1a0c00d 	mov	r12, sp
    3844:	e15c0002 	cmp	r12, r2
    3848:	2afffff7 	bcs	382c <_sbrk+0x30>
    384c:	eb0000eb 	bl	3c00 <__errno>
    3850:	e3a0300c 	mov	r3, #12
    3854:	e5803000 	str	r3, [r0]
    3858:	e3e00000 	mvn	r0, #0
    385c:	e8bd4008 	pop	{r3, lr}
    3860:	e12fff1e 	bx	lr
    3864:	0000456c 	.word	0x0000456c
    3868:	00004568 	.word	0x00004568

0000386c <initialize_monitor_handles.part.0>:
    386c:	e92d4030 	push	{r4, r5, lr}
    3870:	e59f40b0 	ldr	r4, [pc, #176]	; 3928 <initialize_monitor_handles.part.0+0xbc>
    3874:	e24dd014 	sub	sp, sp, #20
    3878:	e3a03000 	mov	r3, #0
    387c:	e3e02000 	mvn	r2, #0
    3880:	e7842003 	str	r2, [r4, r3]
    3884:	e2833008 	add	r3, r3, #8
    3888:	e35300a0 	cmp	r3, #160	; 0xa0
    388c:	1afffffb 	bne	3880 <initialize_monitor_handles.part.0+0x14>
    3890:	e59f5094 	ldr	r5, [pc, #148]	; 392c <initialize_monitor_handles.part.0+0xc0>
    3894:	e3a02003 	mov	r2, #3
    3898:	e3a03000 	mov	r3, #0
    389c:	e58d5004 	str	r5, [sp, #4]
    38a0:	e58d200c 	str	r2, [sp, #12]
    38a4:	e58d3008 	str	r3, [sp, #8]
    38a8:	e28d1004 	add	r1, sp, #4
    38ac:	e3a00001 	mov	r0, #1
    38b0:	ef123456 	svc	0x00123456
    38b4:	e3a03004 	mov	r3, #4
    38b8:	e3a02003 	mov	r2, #3
    38bc:	e5840000 	str	r0, [r4]
    38c0:	e58d5004 	str	r5, [sp, #4]
    38c4:	e58d200c 	str	r2, [sp, #12]
    38c8:	e58d3008 	str	r3, [sp, #8]
    38cc:	e08d1003 	add	r1, sp, r3
    38d0:	e3a00001 	mov	r0, #1
    38d4:	ef123456 	svc	0x00123456
    38d8:	e59fc048 	ldr	r12, [pc, #72]	; 3928 <initialize_monitor_handles.part.0+0xbc>
    38dc:	e3a02003 	mov	r2, #3
    38e0:	e3a03008 	mov	r3, #8
    38e4:	e58c0008 	str	r0, [r12, #8]
    38e8:	e58d5004 	str	r5, [sp, #4]
    38ec:	e28d1004 	add	r1, sp, #4
    38f0:	e58d200c 	str	r2, [sp, #12]
    38f4:	e58d3008 	str	r3, [sp, #8]
    38f8:	e3a00001 	mov	r0, #1
    38fc:	ef123456 	svc	0x00123456
    3900:	e59f4020 	ldr	r4, [pc, #32]	; 3928 <initialize_monitor_handles.part.0+0xbc>
    3904:	e3700001 	cmn	r0, #1
    3908:	05943008 	ldreq	r3, [r4, #8]
    390c:	e5840010 	str	r0, [r4, #16]
    3910:	05843010 	streq	r3, [r4, #16]
    3914:	e3a03001 	mov	r3, #1
    3918:	e58430a0 	str	r3, [r4, #160]	; 0xa0
    391c:	e28dd014 	add	sp, sp, #20
    3920:	e8bd4030 	pop	{r4, r5, lr}
    3924:	e12fff1e 	bx	lr
    3928:	000045c4 	.word	0x000045c4
    392c:	00003cc4 	.word	0x00003cc4

00003930 <__cs3_openslot>:
    3930:	e92d4038 	push	{r3, r4, r5, lr}
    3934:	e59f504c 	ldr	r5, [pc, #76]	; 3988 <__cs3_openslot+0x58>
    3938:	e59530a0 	ldr	r3, [r5, #160]	; 0xa0
    393c:	e3530000 	cmp	r3, #0
    3940:	e1a04000 	mov	r4, r0
    3944:	0a000008 	beq	396c <__cs3_openslot+0x3c>
    3948:	e3540013 	cmp	r4, #19
    394c:	8a000008 	bhi	3974 <__cs3_openslot+0x44>
    3950:	e7953184 	ldr	r3, [r5, r4, lsl #3]
    3954:	e59f002c 	ldr	r0, [pc, #44]	; 3988 <__cs3_openslot+0x58>
    3958:	e3730001 	cmn	r3, #1
    395c:	10800184 	addne	r0, r0, r4, lsl #3
    3960:	0a000003 	beq	3974 <__cs3_openslot+0x44>
    3964:	e8bd4038 	pop	{r3, r4, r5, lr}
    3968:	e12fff1e 	bx	lr
    396c:	ebffffbe 	bl	386c <initialize_monitor_handles.part.0>
    3970:	eafffff4 	b	3948 <__cs3_openslot+0x18>
    3974:	eb0000a1 	bl	3c00 <__errno>
    3978:	e3a03009 	mov	r3, #9
    397c:	e5803000 	str	r3, [r0]
    3980:	e3a00000 	mov	r0, #0
    3984:	eafffff6 	b	3964 <__cs3_openslot+0x34>
    3988:	000045c4 	.word	0x000045c4

0000398c <__cs3_newslot>:
    398c:	e92d4038 	push	{r3, r4, r5, lr}
    3990:	e59f4060 	ldr	r4, [pc, #96]	; 39f8 <__cs3_newslot+0x6c>
    3994:	e59430a0 	ldr	r3, [r4, #160]	; 0xa0
    3998:	e3530000 	cmp	r3, #0
    399c:	e1a05000 	mov	r5, r0
    39a0:	0a000012 	beq	39f0 <__cs3_newslot+0x64>
    39a4:	e3a03000 	mov	r3, #0
    39a8:	e7942183 	ldr	r2, [r4, r3, lsl #3]
    39ac:	e3720001 	cmn	r2, #1
    39b0:	e59f1040 	ldr	r1, [pc, #64]	; 39f8 <__cs3_newslot+0x6c>
    39b4:	e1a02183 	lsl	r2, r3, #3
    39b8:	0a000008 	beq	39e0 <__cs3_newslot+0x54>
    39bc:	e2833001 	add	r3, r3, #1
    39c0:	e3530014 	cmp	r3, #20
    39c4:	1afffff7 	bne	39a8 <__cs3_newslot+0x1c>
    39c8:	eb00008c 	bl	3c00 <__errno>
    39cc:	e3a03018 	mov	r3, #24
    39d0:	e5803000 	str	r3, [r0]
    39d4:	e3a00000 	mov	r0, #0
    39d8:	e8bd4038 	pop	{r3, r4, r5, lr}
    39dc:	e12fff1e 	bx	lr
    39e0:	e5853000 	str	r3, [r5]
    39e4:	e0810002 	add	r0, r1, r2
    39e8:	e8bd4038 	pop	{r3, r4, r5, lr}
    39ec:	e12fff1e 	bx	lr
    39f0:	ebffff9d 	bl	386c <initialize_monitor_handles.part.0>
    39f4:	eaffffea 	b	39a4 <__cs3_newslot+0x18>
    39f8:	000045c4 	.word	0x000045c4

000039fc <__cs3_checkerror>:
    39fc:	e3700001 	cmn	r0, #1
    3a00:	e92d4038 	push	{r3, r4, r5, lr}
    3a04:	e1a04000 	mov	r4, r0
    3a08:	0a000002 	beq	3a18 <__cs3_checkerror+0x1c>
    3a0c:	e1a00004 	mov	r0, r4
    3a10:	e8bd4038 	pop	{r3, r4, r5, lr}
    3a14:	e12fff1e 	bx	lr
    3a18:	eb000078 	bl	3c00 <__errno>
    3a1c:	e3a01000 	mov	r1, #0
    3a20:	e1a05000 	mov	r5, r0
    3a24:	e3a00013 	mov	r0, #19
    3a28:	ef123456 	svc	0x00123456
    3a2c:	e5850000 	str	r0, [r5]
    3a30:	e1a00004 	mov	r0, r4
    3a34:	e8bd4038 	pop	{r3, r4, r5, lr}
    3a38:	e12fff1e 	bx	lr

00003a3c <__cs3_init_args>:
    3a3c:	e92d47d0 	push	{r4, r6, r7, r8, r9, r10, lr}
    3a40:	e3a00c01 	mov	r0, #256	; 0x100
    3a44:	e24dd00c 	sub	sp, sp, #12
    3a48:	ebffff6b 	bl	37fc <_sbrk>
    3a4c:	e3700001 	cmn	r0, #1
    3a50:	e1a07000 	mov	r7, r0
    3a54:	0a00003a 	beq	3b44 <__cs3_init_args+0x108>
    3a58:	e3a02000 	mov	r2, #0
    3a5c:	e3a03c01 	mov	r3, #256	; 0x100
    3a60:	e5c02000 	strb	r2, [r0]
    3a64:	e1a0100d 	mov	r1, sp
    3a68:	e3a00015 	mov	r0, #21
    3a6c:	e58d7000 	str	r7, [sp]
    3a70:	e58d3004 	str	r3, [sp, #4]
    3a74:	ef123456 	svc	0x00123456
    3a78:	e3a00000 	mov	r0, #0
    3a7c:	e59f8158 	ldr	r8, [pc, #344]	; 3bdc <__cs3_init_args+0x1a0>
    3a80:	e1a09000 	mov	r9, r0
    3a84:	e3a0a001 	mov	r10, #1
    3a88:	e5889000 	str	r9, [r8]
    3a8c:	e1a02007 	mov	r2, r7
    3a90:	e1a04007 	mov	r4, r7
    3a94:	e3a06000 	mov	r6, #0
    3a98:	e5d4c000 	ldrb	r12, [r4]
    3a9c:	e35c0000 	cmp	r12, #0
    3aa0:	0a00001d 	beq	3b1c <__cs3_init_args+0xe0>
    3aa4:	e3560000 	cmp	r6, #0
    3aa8:	e2841001 	add	r1, r4, #1
    3aac:	1a000005 	bne	3ac8 <__cs3_init_args+0x8c>
    3ab0:	e5983000 	ldr	r3, [r8]
    3ab4:	e3500000 	cmp	r0, #0
    3ab8:	17802103 	strne	r2, [r0, r3, lsl #2]
    3abc:	e2833001 	add	r3, r3, #1
    3ac0:	e5883000 	str	r3, [r8]
    3ac4:	e3a06001 	mov	r6, #1
    3ac8:	e35c0020 	cmp	r12, #32
    3acc:	0a000025 	beq	3b68 <__cs3_init_args+0x12c>
    3ad0:	e35c0022 	cmp	r12, #34	; 0x22
    3ad4:	135c0027 	cmpne	r12, #39	; 0x27
    3ad8:	1a00001c 	bne	3b50 <__cs3_init_args+0x114>
    3adc:	e5d43001 	ldrb	r3, [r4, #1]
    3ae0:	e3530000 	cmp	r3, #0
    3ae4:	0a00003a 	beq	3bd4 <__cs3_init_args+0x198>
    3ae8:	e15c0003 	cmp	r12, r3
    3aec:	0a000024 	beq	3b84 <__cs3_init_args+0x148>
    3af0:	e2841002 	add	r1, r4, #2
    3af4:	ea000001 	b	3b00 <__cs3_init_args+0xc4>
    3af8:	e15c0003 	cmp	r12, r3
    3afc:	0a000021 	beq	3b88 <__cs3_init_args+0x14c>
    3b00:	e3500000 	cmp	r0, #0
    3b04:	15c23000 	strbne	r3, [r2]
    3b08:	e1a04001 	mov	r4, r1
    3b0c:	e4d13001 	ldrb	r3, [r1], #1
    3b10:	12822001 	addne	r2, r2, #1
    3b14:	e3530000 	cmp	r3, #0
    3b18:	1afffff6 	bne	3af8 <__cs3_init_args+0xbc>
    3b1c:	e35a0001 	cmp	r10, #1
    3b20:	0a00001d 	beq	3b9c <__cs3_init_args+0x160>
    3b24:	e35a0002 	cmp	r10, #2
    3b28:	1a000027 	bne	3bcc <__cs3_init_args+0x190>
    3b2c:	e3a03000 	mov	r3, #0
    3b30:	e5c23000 	strb	r3, [r2]
    3b34:	e59f20a4 	ldr	r2, [pc, #164]	; 3be0 <__cs3_init_args+0x1a4>
    3b38:	e5981000 	ldr	r1, [r8]
    3b3c:	e7803101 	str	r3, [r0, r1, lsl #2]
    3b40:	e5820000 	str	r0, [r2]
    3b44:	e28dd00c 	add	sp, sp, #12
    3b48:	e8bd47d0 	pop	{r4, r6, r7, r8, r9, r10, lr}
    3b4c:	e12fff1e 	bx	lr
    3b50:	e3500000 	cmp	r0, #0
    3b54:	01a04001 	moveq	r4, r1
    3b58:	15c2c000 	strbne	r12, [r2]
    3b5c:	11a04001 	movne	r4, r1
    3b60:	12822001 	addne	r2, r2, #1
    3b64:	eaffffcb 	b	3a98 <__cs3_init_args+0x5c>
    3b68:	e3500000 	cmp	r0, #0
    3b6c:	0a000007 	beq	3b90 <__cs3_init_args+0x154>
    3b70:	e5c29000 	strb	r9, [r2]
    3b74:	e1a04001 	mov	r4, r1
    3b78:	e2822001 	add	r2, r2, #1
    3b7c:	e3a06000 	mov	r6, #0
    3b80:	eaffffc4 	b	3a98 <__cs3_init_args+0x5c>
    3b84:	e1a04001 	mov	r4, r1
    3b88:	e2844001 	add	r4, r4, #1
    3b8c:	eaffffc1 	b	3a98 <__cs3_init_args+0x5c>
    3b90:	e1a04001 	mov	r4, r1
    3b94:	e1a06000 	mov	r6, r0
    3b98:	eaffffbe 	b	3a98 <__cs3_init_args+0x5c>
    3b9c:	e0670004 	rsb	r0, r7, r4
    3ba0:	e2800010 	add	r0, r0, #16
    3ba4:	e3c0000f 	bic	r0, r0, #15
    3ba8:	e2400c01 	sub	r0, r0, #256	; 0x100
    3bac:	ebffff12 	bl	37fc <_sbrk>
    3bb0:	e5980000 	ldr	r0, [r8]
    3bb4:	e2800004 	add	r0, r0, #4
    3bb8:	e3c00003 	bic	r0, r0, #3
    3bbc:	e1a00100 	lsl	r0, r0, #2
    3bc0:	ebffff0d 	bl	37fc <_sbrk>
    3bc4:	e3700001 	cmn	r0, #1
    3bc8:	0affffdd 	beq	3b44 <__cs3_init_args+0x108>
    3bcc:	e28aa001 	add	r10, r10, #1
    3bd0:	eaffffac 	b	3a88 <__cs3_init_args+0x4c>
    3bd4:	e1a04001 	mov	r4, r1
    3bd8:	eaffffcf 	b	3b1c <__cs3_init_args+0xe0>
    3bdc:	0000466c 	.word	0x0000466c
    3be0:	00004668 	.word	0x00004668

00003be4 <__cs3_isr_interrupt>:
    3be4:	eafffffe 	b	3be4 <__cs3_isr_interrupt>

00003be8 <__cs3_isr_undef>:
    3be8:	eafffffe 	b	3be8 <__cs3_isr_undef>

00003bec <__cs3_isr_swi>:
    3bec:	eafffffe 	b	3bec <__cs3_isr_swi>

00003bf0 <__cs3_isr_pabort>:
    3bf0:	eafffffe 	b	3bf0 <__cs3_isr_pabort>

00003bf4 <__cs3_isr_dabort>:
    3bf4:	eafffffe 	b	3bf4 <__cs3_isr_dabort>

00003bf8 <__cs3_isr_irq>:
    3bf8:	eafffffe 	b	3bf8 <__cs3_isr_irq>

00003bfc <__cs3_isr_fiq>:
    3bfc:	eafffffe 	b	3bfc <__cs3_isr_fiq>

00003c00 <__errno>:
    3c00:	e59f3004 	ldr	r3, [pc, #4]	; 3c0c <__errno+0xc>
    3c04:	e5930000 	ldr	r0, [r3]
    3c08:	e12fff1e 	bx	lr
    3c0c:	00003d28 	.word	0x00003d28

00003c10 <__libc_init_array>:
    3c10:	e92d4070 	push	{r4, r5, r6, lr}
    3c14:	e59f506c 	ldr	r5, [pc, #108]	; 3c88 <__libc_init_array+0x78>
    3c18:	e59f606c 	ldr	r6, [pc, #108]	; 3c8c <__libc_init_array+0x7c>
    3c1c:	e0656006 	rsb	r6, r5, r6
    3c20:	e1b06146 	asrs	r6, r6, #2
    3c24:	12455004 	subne	r5, r5, #4
    3c28:	13a04000 	movne	r4, #0
    3c2c:	0a000005 	beq	3c48 <__libc_init_array+0x38>
    3c30:	e2844001 	add	r4, r4, #1
    3c34:	e5b53004 	ldr	r3, [r5, #4]!
    3c38:	e1a0e00f 	mov	lr, pc
    3c3c:	e12fff13 	bx	r3
    3c40:	e1560004 	cmp	r6, r4
    3c44:	1afffff9 	bne	3c30 <__libc_init_array+0x20>
    3c48:	e59f5040 	ldr	r5, [pc, #64]	; 3c90 <__libc_init_array+0x80>
    3c4c:	e59f6040 	ldr	r6, [pc, #64]	; 3c94 <__libc_init_array+0x84>
    3c50:	e0656006 	rsb	r6, r5, r6
    3c54:	eb00001b 	bl	3cc8 <_init>
    3c58:	e1b06146 	asrs	r6, r6, #2
    3c5c:	12455004 	subne	r5, r5, #4
    3c60:	13a04000 	movne	r4, #0
    3c64:	0a000005 	beq	3c80 <__libc_init_array+0x70>
    3c68:	e2844001 	add	r4, r4, #1
    3c6c:	e5b53004 	ldr	r3, [r5, #4]!
    3c70:	e1a0e00f 	mov	lr, pc
    3c74:	e12fff13 	bx	r3
    3c78:	e1560004 	cmp	r6, r4
    3c7c:	1afffff9 	bne	3c68 <__libc_init_array+0x58>
    3c80:	e8bd4070 	pop	{r4, r5, r6, lr}
    3c84:	e12fff1e 	bx	lr
    3c88:	00003ce0 	.word	0x00003ce0
    3c8c:	00003ce0 	.word	0x00003ce0
    3c90:	00003ce0 	.word	0x00003ce0
    3c94:	00003cec 	.word	0x00003cec
